
rtarget:     file format elf64-x86-64


Disassembly of section .init:

0000000000400bb0 <_init>:
  400bb0:	48 83 ec 08          	sub    $0x8,%rsp
  400bb4:	48 8b 05 3d 44 20 00 	mov    0x20443d(%rip),%rax        # 604ff8 <__gmon_start__>
  400bbb:	48 85 c0             	test   %rax,%rax
  400bbe:	74 05                	je     400bc5 <_init+0x15>
  400bc0:	e8 2b 02 00 00       	callq  400df0 <.plt.got>
  400bc5:	48 83 c4 08          	add    $0x8,%rsp
  400bc9:	c3                   	retq   

Disassembly of section .plt:

0000000000400bd0 <.plt>:
  400bd0:	ff 35 32 44 20 00    	pushq  0x204432(%rip)        # 605008 <_GLOBAL_OFFSET_TABLE_+0x8>
  400bd6:	ff 25 34 44 20 00    	jmpq   *0x204434(%rip)        # 605010 <_GLOBAL_OFFSET_TABLE_+0x10>
  400bdc:	0f 1f 40 00          	nopl   0x0(%rax)

0000000000400be0 <strcasecmp@plt>:
  400be0:	ff 25 32 44 20 00    	jmpq   *0x204432(%rip)        # 605018 <strcasecmp@GLIBC_2.2.5>
  400be6:	68 00 00 00 00       	pushq  $0x0
  400beb:	e9 e0 ff ff ff       	jmpq   400bd0 <.plt>

0000000000400bf0 <__errno_location@plt>:
  400bf0:	ff 25 2a 44 20 00    	jmpq   *0x20442a(%rip)        # 605020 <__errno_location@GLIBC_2.2.5>
  400bf6:	68 01 00 00 00       	pushq  $0x1
  400bfb:	e9 d0 ff ff ff       	jmpq   400bd0 <.plt>

0000000000400c00 <srandom@plt>:
  400c00:	ff 25 22 44 20 00    	jmpq   *0x204422(%rip)        # 605028 <srandom@GLIBC_2.2.5>
  400c06:	68 02 00 00 00       	pushq  $0x2
  400c0b:	e9 c0 ff ff ff       	jmpq   400bd0 <.plt>

0000000000400c10 <strncmp@plt>:
  400c10:	ff 25 1a 44 20 00    	jmpq   *0x20441a(%rip)        # 605030 <strncmp@GLIBC_2.2.5>
  400c16:	68 03 00 00 00       	pushq  $0x3
  400c1b:	e9 b0 ff ff ff       	jmpq   400bd0 <.plt>

0000000000400c20 <strcpy@plt>:
  400c20:	ff 25 12 44 20 00    	jmpq   *0x204412(%rip)        # 605038 <strcpy@GLIBC_2.2.5>
  400c26:	68 04 00 00 00       	pushq  $0x4
  400c2b:	e9 a0 ff ff ff       	jmpq   400bd0 <.plt>

0000000000400c30 <puts@plt>:
  400c30:	ff 25 0a 44 20 00    	jmpq   *0x20440a(%rip)        # 605040 <puts@GLIBC_2.2.5>
  400c36:	68 05 00 00 00       	pushq  $0x5
  400c3b:	e9 90 ff ff ff       	jmpq   400bd0 <.plt>

0000000000400c40 <write@plt>:
  400c40:	ff 25 02 44 20 00    	jmpq   *0x204402(%rip)        # 605048 <write@GLIBC_2.2.5>
  400c46:	68 06 00 00 00       	pushq  $0x6
  400c4b:	e9 80 ff ff ff       	jmpq   400bd0 <.plt>

0000000000400c50 <mmap@plt>:
  400c50:	ff 25 fa 43 20 00    	jmpq   *0x2043fa(%rip)        # 605050 <mmap@GLIBC_2.2.5>
  400c56:	68 07 00 00 00       	pushq  $0x7
  400c5b:	e9 70 ff ff ff       	jmpq   400bd0 <.plt>

0000000000400c60 <printf@plt>:
  400c60:	ff 25 f2 43 20 00    	jmpq   *0x2043f2(%rip)        # 605058 <printf@GLIBC_2.2.5>
  400c66:	68 08 00 00 00       	pushq  $0x8
  400c6b:	e9 60 ff ff ff       	jmpq   400bd0 <.plt>

0000000000400c70 <memset@plt>:
  400c70:	ff 25 ea 43 20 00    	jmpq   *0x2043ea(%rip)        # 605060 <memset@GLIBC_2.2.5>
  400c76:	68 09 00 00 00       	pushq  $0x9
  400c7b:	e9 50 ff ff ff       	jmpq   400bd0 <.plt>

0000000000400c80 <alarm@plt>:
  400c80:	ff 25 e2 43 20 00    	jmpq   *0x2043e2(%rip)        # 605068 <alarm@GLIBC_2.2.5>
  400c86:	68 0a 00 00 00       	pushq  $0xa
  400c8b:	e9 40 ff ff ff       	jmpq   400bd0 <.plt>

0000000000400c90 <close@plt>:
  400c90:	ff 25 da 43 20 00    	jmpq   *0x2043da(%rip)        # 605070 <close@GLIBC_2.2.5>
  400c96:	68 0b 00 00 00       	pushq  $0xb
  400c9b:	e9 30 ff ff ff       	jmpq   400bd0 <.plt>

0000000000400ca0 <read@plt>:
  400ca0:	ff 25 d2 43 20 00    	jmpq   *0x2043d2(%rip)        # 605078 <read@GLIBC_2.2.5>
  400ca6:	68 0c 00 00 00       	pushq  $0xc
  400cab:	e9 20 ff ff ff       	jmpq   400bd0 <.plt>

0000000000400cb0 <__libc_start_main@plt>:
  400cb0:	ff 25 ca 43 20 00    	jmpq   *0x2043ca(%rip)        # 605080 <__libc_start_main@GLIBC_2.2.5>
  400cb6:	68 0d 00 00 00       	pushq  $0xd
  400cbb:	e9 10 ff ff ff       	jmpq   400bd0 <.plt>

0000000000400cc0 <signal@plt>:
  400cc0:	ff 25 c2 43 20 00    	jmpq   *0x2043c2(%rip)        # 605088 <signal@GLIBC_2.2.5>
  400cc6:	68 0e 00 00 00       	pushq  $0xe
  400ccb:	e9 00 ff ff ff       	jmpq   400bd0 <.plt>

0000000000400cd0 <gethostbyname@plt>:
  400cd0:	ff 25 ba 43 20 00    	jmpq   *0x2043ba(%rip)        # 605090 <gethostbyname@GLIBC_2.2.5>
  400cd6:	68 0f 00 00 00       	pushq  $0xf
  400cdb:	e9 f0 fe ff ff       	jmpq   400bd0 <.plt>

0000000000400ce0 <fprintf@plt>:
  400ce0:	ff 25 b2 43 20 00    	jmpq   *0x2043b2(%rip)        # 605098 <fprintf@GLIBC_2.2.5>
  400ce6:	68 10 00 00 00       	pushq  $0x10
  400ceb:	e9 e0 fe ff ff       	jmpq   400bd0 <.plt>

0000000000400cf0 <strtol@plt>:
  400cf0:	ff 25 aa 43 20 00    	jmpq   *0x2043aa(%rip)        # 6050a0 <strtol@GLIBC_2.2.5>
  400cf6:	68 11 00 00 00       	pushq  $0x11
  400cfb:	e9 d0 fe ff ff       	jmpq   400bd0 <.plt>

0000000000400d00 <memcpy@plt>:
  400d00:	ff 25 a2 43 20 00    	jmpq   *0x2043a2(%rip)        # 6050a8 <memcpy@GLIBC_2.14>
  400d06:	68 12 00 00 00       	pushq  $0x12
  400d0b:	e9 c0 fe ff ff       	jmpq   400bd0 <.plt>

0000000000400d10 <time@plt>:
  400d10:	ff 25 9a 43 20 00    	jmpq   *0x20439a(%rip)        # 6050b0 <time@GLIBC_2.2.5>
  400d16:	68 13 00 00 00       	pushq  $0x13
  400d1b:	e9 b0 fe ff ff       	jmpq   400bd0 <.plt>

0000000000400d20 <random@plt>:
  400d20:	ff 25 92 43 20 00    	jmpq   *0x204392(%rip)        # 6050b8 <random@GLIBC_2.2.5>
  400d26:	68 14 00 00 00       	pushq  $0x14
  400d2b:	e9 a0 fe ff ff       	jmpq   400bd0 <.plt>

0000000000400d30 <_IO_getc@plt>:
  400d30:	ff 25 8a 43 20 00    	jmpq   *0x20438a(%rip)        # 6050c0 <_IO_getc@GLIBC_2.2.5>
  400d36:	68 15 00 00 00       	pushq  $0x15
  400d3b:	e9 90 fe ff ff       	jmpq   400bd0 <.plt>

0000000000400d40 <__isoc99_sscanf@plt>:
  400d40:	ff 25 82 43 20 00    	jmpq   *0x204382(%rip)        # 6050c8 <__isoc99_sscanf@GLIBC_2.7>
  400d46:	68 16 00 00 00       	pushq  $0x16
  400d4b:	e9 80 fe ff ff       	jmpq   400bd0 <.plt>

0000000000400d50 <munmap@plt>:
  400d50:	ff 25 7a 43 20 00    	jmpq   *0x20437a(%rip)        # 6050d0 <munmap@GLIBC_2.2.5>
  400d56:	68 17 00 00 00       	pushq  $0x17
  400d5b:	e9 70 fe ff ff       	jmpq   400bd0 <.plt>

0000000000400d60 <bcopy@plt>:
  400d60:	ff 25 72 43 20 00    	jmpq   *0x204372(%rip)        # 6050d8 <bcopy@GLIBC_2.2.5>
  400d66:	68 18 00 00 00       	pushq  $0x18
  400d6b:	e9 60 fe ff ff       	jmpq   400bd0 <.plt>

0000000000400d70 <fopen@plt>:
  400d70:	ff 25 6a 43 20 00    	jmpq   *0x20436a(%rip)        # 6050e0 <fopen@GLIBC_2.2.5>
  400d76:	68 19 00 00 00       	pushq  $0x19
  400d7b:	e9 50 fe ff ff       	jmpq   400bd0 <.plt>

0000000000400d80 <getopt@plt>:
  400d80:	ff 25 62 43 20 00    	jmpq   *0x204362(%rip)        # 6050e8 <getopt@GLIBC_2.2.5>
  400d86:	68 1a 00 00 00       	pushq  $0x1a
  400d8b:	e9 40 fe ff ff       	jmpq   400bd0 <.plt>

0000000000400d90 <strtoul@plt>:
  400d90:	ff 25 5a 43 20 00    	jmpq   *0x20435a(%rip)        # 6050f0 <strtoul@GLIBC_2.2.5>
  400d96:	68 1b 00 00 00       	pushq  $0x1b
  400d9b:	e9 30 fe ff ff       	jmpq   400bd0 <.plt>

0000000000400da0 <gethostname@plt>:
  400da0:	ff 25 52 43 20 00    	jmpq   *0x204352(%rip)        # 6050f8 <gethostname@GLIBC_2.2.5>
  400da6:	68 1c 00 00 00       	pushq  $0x1c
  400dab:	e9 20 fe ff ff       	jmpq   400bd0 <.plt>

0000000000400db0 <sprintf@plt>:
  400db0:	ff 25 4a 43 20 00    	jmpq   *0x20434a(%rip)        # 605100 <sprintf@GLIBC_2.2.5>
  400db6:	68 1d 00 00 00       	pushq  $0x1d
  400dbb:	e9 10 fe ff ff       	jmpq   400bd0 <.plt>

0000000000400dc0 <exit@plt>:
  400dc0:	ff 25 42 43 20 00    	jmpq   *0x204342(%rip)        # 605108 <exit@GLIBC_2.2.5>
  400dc6:	68 1e 00 00 00       	pushq  $0x1e
  400dcb:	e9 00 fe ff ff       	jmpq   400bd0 <.plt>

0000000000400dd0 <connect@plt>:
  400dd0:	ff 25 3a 43 20 00    	jmpq   *0x20433a(%rip)        # 605110 <connect@GLIBC_2.2.5>
  400dd6:	68 1f 00 00 00       	pushq  $0x1f
  400ddb:	e9 f0 fd ff ff       	jmpq   400bd0 <.plt>

0000000000400de0 <socket@plt>:
  400de0:	ff 25 32 43 20 00    	jmpq   *0x204332(%rip)        # 605118 <socket@GLIBC_2.2.5>
  400de6:	68 20 00 00 00       	pushq  $0x20
  400deb:	e9 e0 fd ff ff       	jmpq   400bd0 <.plt>

Disassembly of section .plt.got:

0000000000400df0 <.plt.got>:
  400df0:	ff 25 02 42 20 00    	jmpq   *0x204202(%rip)        # 604ff8 <__gmon_start__>
  400df6:	66 90                	xchg   %ax,%ax

Disassembly of section .text:

0000000000400e00 <_start>:
  400e00:	31 ed                	xor    %ebp,%ebp
  400e02:	49 89 d1             	mov    %rdx,%r9
  400e05:	5e                   	pop    %rsi
  400e06:	48 89 e2             	mov    %rsp,%rdx
  400e09:	48 83 e4 f0          	and    $0xfffffffffffffff0,%rsp
  400e0d:	50                   	push   %rax
  400e0e:	54                   	push   %rsp
  400e0f:	49 c7 c0 60 2c 40 00 	mov    $0x402c60,%r8
  400e16:	48 c7 c1 f0 2b 40 00 	mov    $0x402bf0,%rcx
  400e1d:	48 c7 c7 c0 10 40 00 	mov    $0x4010c0,%rdi
  400e24:	e8 87 fe ff ff       	callq  400cb0 <__libc_start_main@plt>
  400e29:	f4                   	hlt    
  400e2a:	66 0f 1f 44 00 00    	nopw   0x0(%rax,%rax,1)

0000000000400e30 <deregister_tm_clones>:
  400e30:	b8 97 54 60 00       	mov    $0x605497,%eax
  400e35:	55                   	push   %rbp
  400e36:	48 2d 90 54 60 00    	sub    $0x605490,%rax
  400e3c:	48 83 f8 0e          	cmp    $0xe,%rax
  400e40:	48 89 e5             	mov    %rsp,%rbp
  400e43:	77 02                	ja     400e47 <deregister_tm_clones+0x17>
  400e45:	5d                   	pop    %rbp
  400e46:	c3                   	retq   
  400e47:	b8 00 00 00 00       	mov    $0x0,%eax
  400e4c:	48 85 c0             	test   %rax,%rax
  400e4f:	74 f4                	je     400e45 <deregister_tm_clones+0x15>
  400e51:	5d                   	pop    %rbp
  400e52:	bf 90 54 60 00       	mov    $0x605490,%edi
  400e57:	ff e0                	jmpq   *%rax
  400e59:	0f 1f 80 00 00 00 00 	nopl   0x0(%rax)

0000000000400e60 <register_tm_clones>:
  400e60:	b8 90 54 60 00       	mov    $0x605490,%eax
  400e65:	55                   	push   %rbp
  400e66:	48 2d 90 54 60 00    	sub    $0x605490,%rax
  400e6c:	48 c1 f8 03          	sar    $0x3,%rax
  400e70:	48 89 e5             	mov    %rsp,%rbp
  400e73:	48 89 c2             	mov    %rax,%rdx
  400e76:	48 c1 ea 3f          	shr    $0x3f,%rdx
  400e7a:	48 01 d0             	add    %rdx,%rax
  400e7d:	48 d1 f8             	sar    %rax
  400e80:	75 02                	jne    400e84 <register_tm_clones+0x24>
  400e82:	5d                   	pop    %rbp
  400e83:	c3                   	retq   
  400e84:	ba 00 00 00 00       	mov    $0x0,%edx
  400e89:	48 85 d2             	test   %rdx,%rdx
  400e8c:	74 f4                	je     400e82 <register_tm_clones+0x22>
  400e8e:	5d                   	pop    %rbp
  400e8f:	48 89 c6             	mov    %rax,%rsi
  400e92:	bf 90 54 60 00       	mov    $0x605490,%edi
  400e97:	ff e2                	jmpq   *%rdx
  400e99:	0f 1f 80 00 00 00 00 	nopl   0x0(%rax)

0000000000400ea0 <__do_global_dtors_aux>:
  400ea0:	80 3d 11 46 20 00 00 	cmpb   $0x0,0x204611(%rip)        # 6054b8 <completed.6355>
  400ea7:	75 11                	jne    400eba <__do_global_dtors_aux+0x1a>
  400ea9:	55                   	push   %rbp
  400eaa:	48 89 e5             	mov    %rsp,%rbp
  400ead:	e8 7e ff ff ff       	callq  400e30 <deregister_tm_clones>
  400eb2:	5d                   	pop    %rbp
  400eb3:	c6 05 fe 45 20 00 01 	movb   $0x1,0x2045fe(%rip)        # 6054b8 <completed.6355>
  400eba:	f3 c3                	repz retq 
  400ebc:	0f 1f 40 00          	nopl   0x0(%rax)

0000000000400ec0 <frame_dummy>:
  400ec0:	48 83 3d 58 3f 20 00 	cmpq   $0x0,0x203f58(%rip)        # 604e20 <__JCR_END__>
  400ec7:	00 
  400ec8:	74 1e                	je     400ee8 <frame_dummy+0x28>
  400eca:	b8 00 00 00 00       	mov    $0x0,%eax
  400ecf:	48 85 c0             	test   %rax,%rax
  400ed2:	74 14                	je     400ee8 <frame_dummy+0x28>
  400ed4:	55                   	push   %rbp
  400ed5:	bf 20 4e 60 00       	mov    $0x604e20,%edi
  400eda:	48 89 e5             	mov    %rsp,%rbp
  400edd:	ff d0                	callq  *%rax
  400edf:	5d                   	pop    %rbp
  400ee0:	e9 7b ff ff ff       	jmpq   400e60 <register_tm_clones>
  400ee5:	0f 1f 00             	nopl   (%rax)
  400ee8:	e9 73 ff ff ff       	jmpq   400e60 <register_tm_clones>
  400eed:	0f 1f 00             	nopl   (%rax)

0000000000400ef0 <usage>:
  400ef0:	48 83 ec 08          	sub    $0x8,%rsp
  400ef4:	48 89 fe             	mov    %rdi,%rsi
  400ef7:	83 3d ea 45 20 00 00 	cmpl   $0x0,0x2045ea(%rip)        # 6054e8 <is_checker>
  400efe:	74 39                	je     400f39 <usage+0x49>
  400f00:	bf 80 2c 40 00       	mov    $0x402c80,%edi
  400f05:	b8 00 00 00 00       	mov    $0x0,%eax
  400f0a:	e8 51 fd ff ff       	callq  400c60 <printf@plt>
  400f0f:	bf b8 2c 40 00       	mov    $0x402cb8,%edi
  400f14:	e8 17 fd ff ff       	callq  400c30 <puts@plt>
  400f19:	bf 30 2e 40 00       	mov    $0x402e30,%edi
  400f1e:	e8 0d fd ff ff       	callq  400c30 <puts@plt>
  400f23:	bf e0 2c 40 00       	mov    $0x402ce0,%edi
  400f28:	e8 03 fd ff ff       	callq  400c30 <puts@plt>
  400f2d:	bf 4a 2e 40 00       	mov    $0x402e4a,%edi
  400f32:	e8 f9 fc ff ff       	callq  400c30 <puts@plt>
  400f37:	eb 2d                	jmp    400f66 <usage+0x76>
  400f39:	bf 66 2e 40 00       	mov    $0x402e66,%edi
  400f3e:	b8 00 00 00 00       	mov    $0x0,%eax
  400f43:	e8 18 fd ff ff       	callq  400c60 <printf@plt>
  400f48:	bf 08 2d 40 00       	mov    $0x402d08,%edi
  400f4d:	e8 de fc ff ff       	callq  400c30 <puts@plt>
  400f52:	bf 30 2d 40 00       	mov    $0x402d30,%edi
  400f57:	e8 d4 fc ff ff       	callq  400c30 <puts@plt>
  400f5c:	bf 84 2e 40 00       	mov    $0x402e84,%edi
  400f61:	e8 ca fc ff ff       	callq  400c30 <puts@plt>
  400f66:	bf 00 00 00 00       	mov    $0x0,%edi
  400f6b:	e8 50 fe ff ff       	callq  400dc0 <exit@plt>

0000000000400f70 <initialize_target>:
  400f70:	55                   	push   %rbp
  400f71:	53                   	push   %rbx
  400f72:	48 81 ec 08 21 00 00 	sub    $0x2108,%rsp
  400f79:	89 f5                	mov    %esi,%ebp
  400f7b:	89 3d 57 45 20 00    	mov    %edi,0x204557(%rip)        # 6054d8 <check_level>
  400f81:	8b 3d c1 41 20 00    	mov    0x2041c1(%rip),%edi        # 605148 <target_id>
  400f87:	e8 35 1c 00 00       	callq  402bc1 <gencookie>
  400f8c:	89 05 52 45 20 00    	mov    %eax,0x204552(%rip)        # 6054e4 <cookie>
  400f92:	89 c7                	mov    %eax,%edi
  400f94:	e8 28 1c 00 00       	callq  402bc1 <gencookie>
  400f99:	89 05 41 45 20 00    	mov    %eax,0x204541(%rip)        # 6054e0 <authkey>
  400f9f:	8b 05 a3 41 20 00    	mov    0x2041a3(%rip),%eax        # 605148 <target_id>
  400fa5:	8d 78 01             	lea    0x1(%rax),%edi
  400fa8:	e8 53 fc ff ff       	callq  400c00 <srandom@plt>
  400fad:	e8 6e fd ff ff       	callq  400d20 <random@plt>
  400fb2:	89 c7                	mov    %eax,%edi
  400fb4:	e8 ca 02 00 00       	callq  401283 <scramble>
  400fb9:	89 c3                	mov    %eax,%ebx
  400fbb:	85 ed                	test   %ebp,%ebp
  400fbd:	74 18                	je     400fd7 <initialize_target+0x67>
  400fbf:	bf 00 00 00 00       	mov    $0x0,%edi
  400fc4:	e8 47 fd ff ff       	callq  400d10 <time@plt>
  400fc9:	89 c7                	mov    %eax,%edi
  400fcb:	e8 30 fc ff ff       	callq  400c00 <srandom@plt>
  400fd0:	e8 4b fd ff ff       	callq  400d20 <random@plt>
  400fd5:	eb 05                	jmp    400fdc <initialize_target+0x6c>
  400fd7:	b8 00 00 00 00       	mov    $0x0,%eax
  400fdc:	01 c3                	add    %eax,%ebx
  400fde:	0f b7 db             	movzwl %bx,%ebx
  400fe1:	8d 04 dd 00 01 00 00 	lea    0x100(,%rbx,8),%eax
  400fe8:	89 c0                	mov    %eax,%eax
  400fea:	48 89 05 8f 44 20 00 	mov    %rax,0x20448f(%rip)        # 605480 <buf_offset>
  400ff1:	c6 05 10 51 20 00 72 	movb   $0x72,0x205110(%rip)        # 606108 <target_prefix>
  400ff8:	83 3d 89 44 20 00 00 	cmpl   $0x0,0x204489(%rip)        # 605488 <notify>
  400fff:	0f 84 b1 00 00 00    	je     4010b6 <initialize_target+0x146>
  401005:	83 3d dc 44 20 00 00 	cmpl   $0x0,0x2044dc(%rip)        # 6054e8 <is_checker>
  40100c:	0f 85 a4 00 00 00    	jne    4010b6 <initialize_target+0x146>
  401012:	be 00 01 00 00       	mov    $0x100,%esi
  401017:	48 89 e7             	mov    %rsp,%rdi
  40101a:	e8 81 fd ff ff       	callq  400da0 <gethostname@plt>
  40101f:	85 c0                	test   %eax,%eax
  401021:	74 25                	je     401048 <initialize_target+0xd8>
  401023:	bf 60 2d 40 00       	mov    $0x402d60,%edi
  401028:	e8 03 fc ff ff       	callq  400c30 <puts@plt>
  40102d:	bf 08 00 00 00       	mov    $0x8,%edi
  401032:	e8 89 fd ff ff       	callq  400dc0 <exit@plt>
  401037:	48 89 e6             	mov    %rsp,%rsi
  40103a:	e8 a1 fb ff ff       	callq  400be0 <strcasecmp@plt>
  40103f:	85 c0                	test   %eax,%eax
  401041:	74 21                	je     401064 <initialize_target+0xf4>
  401043:	83 c3 01             	add    $0x1,%ebx
  401046:	eb 05                	jmp    40104d <initialize_target+0xdd>
  401048:	bb 00 00 00 00       	mov    $0x0,%ebx
  40104d:	48 63 c3             	movslq %ebx,%rax
  401050:	48 8b 3c c5 60 51 60 	mov    0x605160(,%rax,8),%rdi
  401057:	00 
  401058:	48 85 ff             	test   %rdi,%rdi
  40105b:	75 da                	jne    401037 <initialize_target+0xc7>
  40105d:	b8 00 00 00 00       	mov    $0x0,%eax
  401062:	eb 05                	jmp    401069 <initialize_target+0xf9>
  401064:	b8 01 00 00 00       	mov    $0x1,%eax
  401069:	85 c0                	test   %eax,%eax
  40106b:	75 17                	jne    401084 <initialize_target+0x114>
  40106d:	48 89 e6             	mov    %rsp,%rsi
  401070:	bf 98 2d 40 00       	mov    $0x402d98,%edi
  401075:	e8 e6 fb ff ff       	callq  400c60 <printf@plt>
  40107a:	bf 08 00 00 00       	mov    $0x8,%edi
  40107f:	e8 3c fd ff ff       	callq  400dc0 <exit@plt>
  401084:	48 8d bc 24 00 01 00 	lea    0x100(%rsp),%rdi
  40108b:	00 
  40108c:	e8 c9 18 00 00       	callq  40295a <init_driver>
  401091:	85 c0                	test   %eax,%eax
  401093:	79 21                	jns    4010b6 <initialize_target+0x146>
  401095:	48 8d b4 24 00 01 00 	lea    0x100(%rsp),%rsi
  40109c:	00 
  40109d:	bf d8 2d 40 00       	mov    $0x402dd8,%edi
  4010a2:	b8 00 00 00 00       	mov    $0x0,%eax
  4010a7:	e8 b4 fb ff ff       	callq  400c60 <printf@plt>
  4010ac:	bf 08 00 00 00       	mov    $0x8,%edi
  4010b1:	e8 0a fd ff ff       	callq  400dc0 <exit@plt>
  4010b6:	48 81 c4 08 21 00 00 	add    $0x2108,%rsp
  4010bd:	5b                   	pop    %rbx
  4010be:	5d                   	pop    %rbp
  4010bf:	c3                   	retq   

00000000004010c0 <main>:
  4010c0:	41 56                	push   %r14
  4010c2:	41 55                	push   %r13
  4010c4:	41 54                	push   %r12
  4010c6:	55                   	push   %rbp
  4010c7:	53                   	push   %rbx
  4010c8:	41 89 fc             	mov    %edi,%r12d
  4010cb:	48 89 f3             	mov    %rsi,%rbx
  4010ce:	be 81 1d 40 00       	mov    $0x401d81,%esi
  4010d3:	bf 0b 00 00 00       	mov    $0xb,%edi
  4010d8:	e8 e3 fb ff ff       	callq  400cc0 <signal@plt>
  4010dd:	be 33 1d 40 00       	mov    $0x401d33,%esi
  4010e2:	bf 07 00 00 00       	mov    $0x7,%edi
  4010e7:	e8 d4 fb ff ff       	callq  400cc0 <signal@plt>
  4010ec:	be cf 1d 40 00       	mov    $0x401dcf,%esi
  4010f1:	bf 04 00 00 00       	mov    $0x4,%edi
  4010f6:	e8 c5 fb ff ff       	callq  400cc0 <signal@plt>
  4010fb:	83 3d e6 43 20 00 00 	cmpl   $0x0,0x2043e6(%rip)        # 6054e8 <is_checker>
  401102:	74 20                	je     401124 <main+0x64>
  401104:	be 1d 1e 40 00       	mov    $0x401e1d,%esi
  401109:	bf 0e 00 00 00       	mov    $0xe,%edi
  40110e:	e8 ad fb ff ff       	callq  400cc0 <signal@plt>
  401113:	bf 05 00 00 00       	mov    $0x5,%edi
  401118:	e8 63 fb ff ff       	callq  400c80 <alarm@plt>
  40111d:	bd a2 2e 40 00       	mov    $0x402ea2,%ebp
  401122:	eb 05                	jmp    401129 <main+0x69>
  401124:	bd 9d 2e 40 00       	mov    $0x402e9d,%ebp
  401129:	48 8b 05 70 43 20 00 	mov    0x204370(%rip),%rax        # 6054a0 <stdin@@GLIBC_2.2.5>
  401130:	48 89 05 99 43 20 00 	mov    %rax,0x204399(%rip)        # 6054d0 <infile>
  401137:	41 bd 00 00 00 00    	mov    $0x0,%r13d
  40113d:	41 be 00 00 00 00    	mov    $0x0,%r14d
  401143:	e9 b9 00 00 00       	jmpq   401201 <main+0x141>
  401148:	83 e8 61             	sub    $0x61,%eax
  40114b:	3c 10                	cmp    $0x10,%al
  40114d:	0f 87 93 00 00 00    	ja     4011e6 <main+0x126>
  401153:	0f b6 c0             	movzbl %al,%eax
  401156:	ff 24 c5 e8 2e 40 00 	jmpq   *0x402ee8(,%rax,8)
  40115d:	48 8b 3b             	mov    (%rbx),%rdi
  401160:	e8 8b fd ff ff       	callq  400ef0 <usage>
  401165:	be 3d 32 40 00       	mov    $0x40323d,%esi
  40116a:	48 8b 3d 37 43 20 00 	mov    0x204337(%rip),%rdi        # 6054a8 <optarg@@GLIBC_2.2.5>
  401171:	e8 fa fb ff ff       	callq  400d70 <fopen@plt>
  401176:	48 89 05 53 43 20 00 	mov    %rax,0x204353(%rip)        # 6054d0 <infile>
  40117d:	48 85 c0             	test   %rax,%rax
  401180:	75 7f                	jne    401201 <main+0x141>
  401182:	48 8b 15 1f 43 20 00 	mov    0x20431f(%rip),%rdx        # 6054a8 <optarg@@GLIBC_2.2.5>
  401189:	be aa 2e 40 00       	mov    $0x402eaa,%esi
  40118e:	48 8b 3d 1b 43 20 00 	mov    0x20431b(%rip),%rdi        # 6054b0 <stderr@@GLIBC_2.2.5>
  401195:	e8 46 fb ff ff       	callq  400ce0 <fprintf@plt>
  40119a:	b8 01 00 00 00       	mov    $0x1,%eax
  40119f:	e9 d6 00 00 00       	jmpq   40127a <main+0x1ba>
  4011a4:	ba 10 00 00 00       	mov    $0x10,%edx
  4011a9:	be 00 00 00 00       	mov    $0x0,%esi
  4011ae:	48 8b 3d f3 42 20 00 	mov    0x2042f3(%rip),%rdi        # 6054a8 <optarg@@GLIBC_2.2.5>
  4011b5:	e8 d6 fb ff ff       	callq  400d90 <strtoul@plt>
  4011ba:	41 89 c6             	mov    %eax,%r14d
  4011bd:	eb 42                	jmp    401201 <main+0x141>
  4011bf:	ba 0a 00 00 00       	mov    $0xa,%edx
  4011c4:	be 00 00 00 00       	mov    $0x0,%esi
  4011c9:	48 8b 3d d8 42 20 00 	mov    0x2042d8(%rip),%rdi        # 6054a8 <optarg@@GLIBC_2.2.5>
  4011d0:	e8 1b fb ff ff       	callq  400cf0 <strtol@plt>
  4011d5:	41 89 c5             	mov    %eax,%r13d
  4011d8:	eb 27                	jmp    401201 <main+0x141>
  4011da:	c7 05 a4 42 20 00 00 	movl   $0x0,0x2042a4(%rip)        # 605488 <notify>
  4011e1:	00 00 00 
  4011e4:	eb 1b                	jmp    401201 <main+0x141>
  4011e6:	40 0f be f6          	movsbl %sil,%esi
  4011ea:	bf c7 2e 40 00       	mov    $0x402ec7,%edi
  4011ef:	b8 00 00 00 00       	mov    $0x0,%eax
  4011f4:	e8 67 fa ff ff       	callq  400c60 <printf@plt>
  4011f9:	48 8b 3b             	mov    (%rbx),%rdi
  4011fc:	e8 ef fc ff ff       	callq  400ef0 <usage>
  401201:	48 89 ea             	mov    %rbp,%rdx
  401204:	48 89 de             	mov    %rbx,%rsi
  401207:	44 89 e7             	mov    %r12d,%edi
  40120a:	e8 71 fb ff ff       	callq  400d80 <getopt@plt>
  40120f:	89 c6                	mov    %eax,%esi
  401211:	3c ff                	cmp    $0xff,%al
  401213:	0f 85 2f ff ff ff    	jne    401148 <main+0x88>
  401219:	be 01 00 00 00       	mov    $0x1,%esi
  40121e:	44 89 ef             	mov    %r13d,%edi
  401221:	e8 4a fd ff ff       	callq  400f70 <initialize_target>
  401226:	83 3d bb 42 20 00 00 	cmpl   $0x0,0x2042bb(%rip)        # 6054e8 <is_checker>
  40122d:	74 25                	je     401254 <main+0x194>
  40122f:	44 3b 35 aa 42 20 00 	cmp    0x2042aa(%rip),%r14d        # 6054e0 <authkey>
  401236:	74 1c                	je     401254 <main+0x194>
  401238:	44 89 f6             	mov    %r14d,%esi
  40123b:	bf 00 2e 40 00       	mov    $0x402e00,%edi
  401240:	b8 00 00 00 00       	mov    $0x0,%eax
  401245:	e8 16 fa ff ff       	callq  400c60 <printf@plt>
  40124a:	b8 00 00 00 00       	mov    $0x0,%eax
  40124f:	e8 e7 07 00 00       	callq  401a3b <check_fail>
  401254:	8b 35 8a 42 20 00    	mov    0x20428a(%rip),%esi        # 6054e4 <cookie>
  40125a:	bf da 2e 40 00       	mov    $0x402eda,%edi
  40125f:	b8 00 00 00 00       	mov    $0x0,%eax
  401264:	e8 f7 f9 ff ff       	callq  400c60 <printf@plt>
  401269:	48 8b 3d 10 42 20 00 	mov    0x204210(%rip),%rdi        # 605480 <buf_offset>
  401270:	e8 f6 0b 00 00       	callq  401e6b <launch>
  401275:	b8 00 00 00 00       	mov    $0x0,%eax
  40127a:	5b                   	pop    %rbx
  40127b:	5d                   	pop    %rbp
  40127c:	41 5c                	pop    %r12
  40127e:	41 5d                	pop    %r13
  401280:	41 5e                	pop    %r14
  401282:	c3                   	retq   

0000000000401283 <scramble>:
  401283:	b8 00 00 00 00       	mov    $0x0,%eax
  401288:	eb 11                	jmp    40129b <scramble+0x18>
  40128a:	69 c8 24 a6 00 00    	imul   $0xa624,%eax,%ecx
  401290:	01 f9                	add    %edi,%ecx
  401292:	89 c2                	mov    %eax,%edx
  401294:	89 4c 94 d0          	mov    %ecx,-0x30(%rsp,%rdx,4)
  401298:	83 c0 01             	add    $0x1,%eax
  40129b:	83 f8 09             	cmp    $0x9,%eax
  40129e:	76 ea                	jbe    40128a <scramble+0x7>
  4012a0:	8b 44 24 f0          	mov    -0x10(%rsp),%eax
  4012a4:	69 c0 fd 44 00 00    	imul   $0x44fd,%eax,%eax
  4012aa:	89 44 24 f0          	mov    %eax,-0x10(%rsp)
  4012ae:	8b 44 24 e4          	mov    -0x1c(%rsp),%eax
  4012b2:	69 c0 08 e3 00 00    	imul   $0xe308,%eax,%eax
  4012b8:	89 44 24 e4          	mov    %eax,-0x1c(%rsp)
  4012bc:	8b 44 24 dc          	mov    -0x24(%rsp),%eax
  4012c0:	69 c0 63 d3 00 00    	imul   $0xd363,%eax,%eax
  4012c6:	89 44 24 dc          	mov    %eax,-0x24(%rsp)
  4012ca:	8b 44 24 e4          	mov    -0x1c(%rsp),%eax
  4012ce:	69 c0 e7 dc 00 00    	imul   $0xdce7,%eax,%eax
  4012d4:	89 44 24 e4          	mov    %eax,-0x1c(%rsp)
  4012d8:	8b 44 24 f0          	mov    -0x10(%rsp),%eax
  4012dc:	69 c0 d3 76 00 00    	imul   $0x76d3,%eax,%eax
  4012e2:	89 44 24 f0          	mov    %eax,-0x10(%rsp)
  4012e6:	8b 44 24 d8          	mov    -0x28(%rsp),%eax
  4012ea:	69 c0 31 36 00 00    	imul   $0x3631,%eax,%eax
  4012f0:	89 44 24 d8          	mov    %eax,-0x28(%rsp)
  4012f4:	8b 44 24 dc          	mov    -0x24(%rsp),%eax
  4012f8:	69 c0 0c 5d 00 00    	imul   $0x5d0c,%eax,%eax
  4012fe:	89 44 24 dc          	mov    %eax,-0x24(%rsp)
  401302:	8b 44 24 dc          	mov    -0x24(%rsp),%eax
  401306:	69 c0 54 fd 00 00    	imul   $0xfd54,%eax,%eax
  40130c:	89 44 24 dc          	mov    %eax,-0x24(%rsp)
  401310:	8b 44 24 f0          	mov    -0x10(%rsp),%eax
  401314:	69 c0 19 70 00 00    	imul   $0x7019,%eax,%eax
  40131a:	89 44 24 f0          	mov    %eax,-0x10(%rsp)
  40131e:	8b 44 24 f0          	mov    -0x10(%rsp),%eax
  401322:	69 c0 d1 01 00 00    	imul   $0x1d1,%eax,%eax
  401328:	89 44 24 f0          	mov    %eax,-0x10(%rsp)
  40132c:	8b 44 24 d4          	mov    -0x2c(%rsp),%eax
  401330:	69 c0 f7 a8 00 00    	imul   $0xa8f7,%eax,%eax
  401336:	89 44 24 d4          	mov    %eax,-0x2c(%rsp)
  40133a:	8b 44 24 e4          	mov    -0x1c(%rsp),%eax
  40133e:	69 c0 d3 ac 00 00    	imul   $0xacd3,%eax,%eax
  401344:	89 44 24 e4          	mov    %eax,-0x1c(%rsp)
  401348:	8b 44 24 f4          	mov    -0xc(%rsp),%eax
  40134c:	69 c0 7c 90 00 00    	imul   $0x907c,%eax,%eax
  401352:	89 44 24 f4          	mov    %eax,-0xc(%rsp)
  401356:	8b 44 24 f4          	mov    -0xc(%rsp),%eax
  40135a:	69 c0 4d 52 00 00    	imul   $0x524d,%eax,%eax
  401360:	89 44 24 f4          	mov    %eax,-0xc(%rsp)
  401364:	8b 44 24 e0          	mov    -0x20(%rsp),%eax
  401368:	69 c0 65 87 00 00    	imul   $0x8765,%eax,%eax
  40136e:	89 44 24 e0          	mov    %eax,-0x20(%rsp)
  401372:	8b 44 24 f0          	mov    -0x10(%rsp),%eax
  401376:	69 c0 a1 d7 00 00    	imul   $0xd7a1,%eax,%eax
  40137c:	89 44 24 f0          	mov    %eax,-0x10(%rsp)
  401380:	8b 44 24 d0          	mov    -0x30(%rsp),%eax
  401384:	69 c0 61 da 00 00    	imul   $0xda61,%eax,%eax
  40138a:	89 44 24 d0          	mov    %eax,-0x30(%rsp)
  40138e:	8b 44 24 f0          	mov    -0x10(%rsp),%eax
  401392:	69 c0 77 0f 00 00    	imul   $0xf77,%eax,%eax
  401398:	89 44 24 f0          	mov    %eax,-0x10(%rsp)
  40139c:	8b 44 24 f4          	mov    -0xc(%rsp),%eax
  4013a0:	69 c0 17 a1 00 00    	imul   $0xa117,%eax,%eax
  4013a6:	89 44 24 f4          	mov    %eax,-0xc(%rsp)
  4013aa:	8b 44 24 d8          	mov    -0x28(%rsp),%eax
  4013ae:	69 c0 95 35 00 00    	imul   $0x3595,%eax,%eax
  4013b4:	89 44 24 d8          	mov    %eax,-0x28(%rsp)
  4013b8:	8b 44 24 e8          	mov    -0x18(%rsp),%eax
  4013bc:	69 c0 59 cb 00 00    	imul   $0xcb59,%eax,%eax
  4013c2:	89 44 24 e8          	mov    %eax,-0x18(%rsp)
  4013c6:	8b 44 24 ec          	mov    -0x14(%rsp),%eax
  4013ca:	69 c0 f8 c0 00 00    	imul   $0xc0f8,%eax,%eax
  4013d0:	89 44 24 ec          	mov    %eax,-0x14(%rsp)
  4013d4:	8b 44 24 f4          	mov    -0xc(%rsp),%eax
  4013d8:	69 c0 99 c3 00 00    	imul   $0xc399,%eax,%eax
  4013de:	89 44 24 f4          	mov    %eax,-0xc(%rsp)
  4013e2:	8b 44 24 f0          	mov    -0x10(%rsp),%eax
  4013e6:	69 c0 7f 60 00 00    	imul   $0x607f,%eax,%eax
  4013ec:	89 44 24 f0          	mov    %eax,-0x10(%rsp)
  4013f0:	8b 44 24 d8          	mov    -0x28(%rsp),%eax
  4013f4:	69 c0 09 49 00 00    	imul   $0x4909,%eax,%eax
  4013fa:	89 44 24 d8          	mov    %eax,-0x28(%rsp)
  4013fe:	8b 44 24 f0          	mov    -0x10(%rsp),%eax
  401402:	69 c0 b0 3b 00 00    	imul   $0x3bb0,%eax,%eax
  401408:	89 44 24 f0          	mov    %eax,-0x10(%rsp)
  40140c:	8b 44 24 ec          	mov    -0x14(%rsp),%eax
  401410:	69 c0 f1 9f 00 00    	imul   $0x9ff1,%eax,%eax
  401416:	89 44 24 ec          	mov    %eax,-0x14(%rsp)
  40141a:	8b 44 24 f0          	mov    -0x10(%rsp),%eax
  40141e:	69 c0 83 ca 00 00    	imul   $0xca83,%eax,%eax
  401424:	89 44 24 f0          	mov    %eax,-0x10(%rsp)
  401428:	8b 44 24 dc          	mov    -0x24(%rsp),%eax
  40142c:	69 c0 c5 a7 00 00    	imul   $0xa7c5,%eax,%eax
  401432:	89 44 24 dc          	mov    %eax,-0x24(%rsp)
  401436:	8b 44 24 e0          	mov    -0x20(%rsp),%eax
  40143a:	69 c0 eb 61 00 00    	imul   $0x61eb,%eax,%eax
  401440:	89 44 24 e0          	mov    %eax,-0x20(%rsp)
  401444:	8b 44 24 dc          	mov    -0x24(%rsp),%eax
  401448:	69 c0 89 e8 00 00    	imul   $0xe889,%eax,%eax
  40144e:	89 44 24 dc          	mov    %eax,-0x24(%rsp)
  401452:	8b 44 24 e0          	mov    -0x20(%rsp),%eax
  401456:	69 c0 8c fb 00 00    	imul   $0xfb8c,%eax,%eax
  40145c:	89 44 24 e0          	mov    %eax,-0x20(%rsp)
  401460:	8b 44 24 d0          	mov    -0x30(%rsp),%eax
  401464:	69 c0 37 f4 00 00    	imul   $0xf437,%eax,%eax
  40146a:	89 44 24 d0          	mov    %eax,-0x30(%rsp)
  40146e:	8b 44 24 d8          	mov    -0x28(%rsp),%eax
  401472:	69 c0 ae 70 00 00    	imul   $0x70ae,%eax,%eax
  401478:	89 44 24 d8          	mov    %eax,-0x28(%rsp)
  40147c:	8b 44 24 f4          	mov    -0xc(%rsp),%eax
  401480:	69 c0 63 f7 00 00    	imul   $0xf763,%eax,%eax
  401486:	89 44 24 f4          	mov    %eax,-0xc(%rsp)
  40148a:	8b 44 24 f0          	mov    -0x10(%rsp),%eax
  40148e:	69 c0 39 ad 00 00    	imul   $0xad39,%eax,%eax
  401494:	89 44 24 f0          	mov    %eax,-0x10(%rsp)
  401498:	8b 44 24 dc          	mov    -0x24(%rsp),%eax
  40149c:	69 c0 0a 12 00 00    	imul   $0x120a,%eax,%eax
  4014a2:	89 44 24 dc          	mov    %eax,-0x24(%rsp)
  4014a6:	8b 44 24 ec          	mov    -0x14(%rsp),%eax
  4014aa:	69 c0 21 eb 00 00    	imul   $0xeb21,%eax,%eax
  4014b0:	89 44 24 ec          	mov    %eax,-0x14(%rsp)
  4014b4:	8b 44 24 f0          	mov    -0x10(%rsp),%eax
  4014b8:	69 c0 7e 2c 00 00    	imul   $0x2c7e,%eax,%eax
  4014be:	89 44 24 f0          	mov    %eax,-0x10(%rsp)
  4014c2:	8b 44 24 e0          	mov    -0x20(%rsp),%eax
  4014c6:	69 c0 56 09 00 00    	imul   $0x956,%eax,%eax
  4014cc:	89 44 24 e0          	mov    %eax,-0x20(%rsp)
  4014d0:	8b 44 24 e8          	mov    -0x18(%rsp),%eax
  4014d4:	69 c0 f1 ad 00 00    	imul   $0xadf1,%eax,%eax
  4014da:	89 44 24 e8          	mov    %eax,-0x18(%rsp)
  4014de:	8b 44 24 e8          	mov    -0x18(%rsp),%eax
  4014e2:	69 c0 88 67 00 00    	imul   $0x6788,%eax,%eax
  4014e8:	89 44 24 e8          	mov    %eax,-0x18(%rsp)
  4014ec:	8b 44 24 d0          	mov    -0x30(%rsp),%eax
  4014f0:	69 c0 8a 2d 00 00    	imul   $0x2d8a,%eax,%eax
  4014f6:	89 44 24 d0          	mov    %eax,-0x30(%rsp)
  4014fa:	8b 44 24 ec          	mov    -0x14(%rsp),%eax
  4014fe:	69 c0 50 7e 00 00    	imul   $0x7e50,%eax,%eax
  401504:	89 44 24 ec          	mov    %eax,-0x14(%rsp)
  401508:	8b 44 24 e0          	mov    -0x20(%rsp),%eax
  40150c:	69 c0 dd 4e 00 00    	imul   $0x4edd,%eax,%eax
  401512:	89 44 24 e0          	mov    %eax,-0x20(%rsp)
  401516:	8b 44 24 d8          	mov    -0x28(%rsp),%eax
  40151a:	69 c0 79 04 00 00    	imul   $0x479,%eax,%eax
  401520:	89 44 24 d8          	mov    %eax,-0x28(%rsp)
  401524:	8b 44 24 e4          	mov    -0x1c(%rsp),%eax
  401528:	69 c0 c9 19 00 00    	imul   $0x19c9,%eax,%eax
  40152e:	89 44 24 e4          	mov    %eax,-0x1c(%rsp)
  401532:	8b 44 24 e8          	mov    -0x18(%rsp),%eax
  401536:	69 c0 51 fa 00 00    	imul   $0xfa51,%eax,%eax
  40153c:	89 44 24 e8          	mov    %eax,-0x18(%rsp)
  401540:	8b 44 24 d4          	mov    -0x2c(%rsp),%eax
  401544:	69 c0 09 0b 00 00    	imul   $0xb09,%eax,%eax
  40154a:	89 44 24 d4          	mov    %eax,-0x2c(%rsp)
  40154e:	8b 44 24 f0          	mov    -0x10(%rsp),%eax
  401552:	69 c0 4e a3 00 00    	imul   $0xa34e,%eax,%eax
  401558:	89 44 24 f0          	mov    %eax,-0x10(%rsp)
  40155c:	8b 44 24 e4          	mov    -0x1c(%rsp),%eax
  401560:	69 c0 43 11 00 00    	imul   $0x1143,%eax,%eax
  401566:	89 44 24 e4          	mov    %eax,-0x1c(%rsp)
  40156a:	8b 44 24 f4          	mov    -0xc(%rsp),%eax
  40156e:	69 c0 28 c5 00 00    	imul   $0xc528,%eax,%eax
  401574:	89 44 24 f4          	mov    %eax,-0xc(%rsp)
  401578:	8b 44 24 e0          	mov    -0x20(%rsp),%eax
  40157c:	69 c0 b9 be 00 00    	imul   $0xbeb9,%eax,%eax
  401582:	89 44 24 e0          	mov    %eax,-0x20(%rsp)
  401586:	8b 44 24 e4          	mov    -0x1c(%rsp),%eax
  40158a:	69 c0 f0 f8 00 00    	imul   $0xf8f0,%eax,%eax
  401590:	89 44 24 e4          	mov    %eax,-0x1c(%rsp)
  401594:	8b 44 24 e8          	mov    -0x18(%rsp),%eax
  401598:	69 c0 ea fb 00 00    	imul   $0xfbea,%eax,%eax
  40159e:	89 44 24 e8          	mov    %eax,-0x18(%rsp)
  4015a2:	8b 44 24 dc          	mov    -0x24(%rsp),%eax
  4015a6:	69 c0 bf 60 00 00    	imul   $0x60bf,%eax,%eax
  4015ac:	89 44 24 dc          	mov    %eax,-0x24(%rsp)
  4015b0:	8b 44 24 e8          	mov    -0x18(%rsp),%eax
  4015b4:	69 c0 4d 47 00 00    	imul   $0x474d,%eax,%eax
  4015ba:	89 44 24 e8          	mov    %eax,-0x18(%rsp)
  4015be:	8b 44 24 dc          	mov    -0x24(%rsp),%eax
  4015c2:	69 c0 be f7 00 00    	imul   $0xf7be,%eax,%eax
  4015c8:	89 44 24 dc          	mov    %eax,-0x24(%rsp)
  4015cc:	8b 44 24 f0          	mov    -0x10(%rsp),%eax
  4015d0:	69 c0 54 fa 00 00    	imul   $0xfa54,%eax,%eax
  4015d6:	89 44 24 f0          	mov    %eax,-0x10(%rsp)
  4015da:	8b 44 24 dc          	mov    -0x24(%rsp),%eax
  4015de:	69 c0 26 4a 00 00    	imul   $0x4a26,%eax,%eax
  4015e4:	89 44 24 dc          	mov    %eax,-0x24(%rsp)
  4015e8:	8b 44 24 dc          	mov    -0x24(%rsp),%eax
  4015ec:	69 c0 4a 56 00 00    	imul   $0x564a,%eax,%eax
  4015f2:	89 44 24 dc          	mov    %eax,-0x24(%rsp)
  4015f6:	8b 44 24 dc          	mov    -0x24(%rsp),%eax
  4015fa:	69 c0 97 80 00 00    	imul   $0x8097,%eax,%eax
  401600:	89 44 24 dc          	mov    %eax,-0x24(%rsp)
  401604:	8b 44 24 e0          	mov    -0x20(%rsp),%eax
  401608:	69 c0 a4 4e 00 00    	imul   $0x4ea4,%eax,%eax
  40160e:	89 44 24 e0          	mov    %eax,-0x20(%rsp)
  401612:	8b 44 24 f0          	mov    -0x10(%rsp),%eax
  401616:	69 c0 13 7e 00 00    	imul   $0x7e13,%eax,%eax
  40161c:	89 44 24 f0          	mov    %eax,-0x10(%rsp)
  401620:	8b 44 24 f0          	mov    -0x10(%rsp),%eax
  401624:	69 c0 e8 e5 00 00    	imul   $0xe5e8,%eax,%eax
  40162a:	89 44 24 f0          	mov    %eax,-0x10(%rsp)
  40162e:	8b 44 24 ec          	mov    -0x14(%rsp),%eax
  401632:	69 c0 1a 5c 00 00    	imul   $0x5c1a,%eax,%eax
  401638:	89 44 24 ec          	mov    %eax,-0x14(%rsp)
  40163c:	8b 44 24 e4          	mov    -0x1c(%rsp),%eax
  401640:	69 c0 e9 71 00 00    	imul   $0x71e9,%eax,%eax
  401646:	89 44 24 e4          	mov    %eax,-0x1c(%rsp)
  40164a:	8b 44 24 f0          	mov    -0x10(%rsp),%eax
  40164e:	69 c0 78 1a 00 00    	imul   $0x1a78,%eax,%eax
  401654:	89 44 24 f0          	mov    %eax,-0x10(%rsp)
  401658:	8b 44 24 e8          	mov    -0x18(%rsp),%eax
  40165c:	69 c0 8d d1 00 00    	imul   $0xd18d,%eax,%eax
  401662:	89 44 24 e8          	mov    %eax,-0x18(%rsp)
  401666:	8b 44 24 d4          	mov    -0x2c(%rsp),%eax
  40166a:	69 c0 da 1b 00 00    	imul   $0x1bda,%eax,%eax
  401670:	89 44 24 d4          	mov    %eax,-0x2c(%rsp)
  401674:	8b 44 24 ec          	mov    -0x14(%rsp),%eax
  401678:	69 c0 af 15 00 00    	imul   $0x15af,%eax,%eax
  40167e:	89 44 24 ec          	mov    %eax,-0x14(%rsp)
  401682:	8b 44 24 d8          	mov    -0x28(%rsp),%eax
  401686:	69 c0 53 77 00 00    	imul   $0x7753,%eax,%eax
  40168c:	89 44 24 d8          	mov    %eax,-0x28(%rsp)
  401690:	8b 44 24 f4          	mov    -0xc(%rsp),%eax
  401694:	69 c0 e1 44 00 00    	imul   $0x44e1,%eax,%eax
  40169a:	89 44 24 f4          	mov    %eax,-0xc(%rsp)
  40169e:	8b 44 24 e4          	mov    -0x1c(%rsp),%eax
  4016a2:	69 c0 d3 d1 00 00    	imul   $0xd1d3,%eax,%eax
  4016a8:	89 44 24 e4          	mov    %eax,-0x1c(%rsp)
  4016ac:	8b 44 24 ec          	mov    -0x14(%rsp),%eax
  4016b0:	69 c0 1f e5 00 00    	imul   $0xe51f,%eax,%eax
  4016b6:	89 44 24 ec          	mov    %eax,-0x14(%rsp)
  4016ba:	8b 44 24 d8          	mov    -0x28(%rsp),%eax
  4016be:	69 c0 66 88 00 00    	imul   $0x8866,%eax,%eax
  4016c4:	89 44 24 d8          	mov    %eax,-0x28(%rsp)
  4016c8:	8b 44 24 e8          	mov    -0x18(%rsp),%eax
  4016cc:	69 c0 98 6a 00 00    	imul   $0x6a98,%eax,%eax
  4016d2:	89 44 24 e8          	mov    %eax,-0x18(%rsp)
  4016d6:	8b 44 24 d8          	mov    -0x28(%rsp),%eax
  4016da:	69 c0 7d ab 00 00    	imul   $0xab7d,%eax,%eax
  4016e0:	89 44 24 d8          	mov    %eax,-0x28(%rsp)
  4016e4:	ba 00 00 00 00       	mov    $0x0,%edx
  4016e9:	b8 00 00 00 00       	mov    $0x0,%eax
  4016ee:	eb 0b                	jmp    4016fb <scramble+0x478>
  4016f0:	89 d1                	mov    %edx,%ecx
  4016f2:	8b 4c 8c d0          	mov    -0x30(%rsp,%rcx,4),%ecx
  4016f6:	01 c8                	add    %ecx,%eax
  4016f8:	83 c2 01             	add    $0x1,%edx
  4016fb:	83 fa 09             	cmp    $0x9,%edx
  4016fe:	76 f0                	jbe    4016f0 <scramble+0x46d>
  401700:	f3 c3                	repz retq 

0000000000401702 <getbuf>:
  401702:	48 83 ec 28          	sub    $0x28,%rsp
  401706:	48 89 e7             	mov    %rsp,%rdi
  401709:	e8 5c 03 00 00       	callq  401a6a <Gets>
  40170e:	b8 01 00 00 00       	mov    $0x1,%eax
  401713:	48 83 c4 28          	add    $0x28,%rsp
  401717:	c3                   	retq   

0000000000401718 <touch1>:
  401718:	48 83 ec 08          	sub    $0x8,%rsp
  40171c:	c7 05 b6 3d 20 00 01 	movl   $0x1,0x203db6(%rip)        # 6054dc <vlevel>
  401723:	00 00 00 
  401726:	bf 93 30 40 00       	mov    $0x403093,%edi
  40172b:	e8 00 f5 ff ff       	callq  400c30 <puts@plt>
  401730:	bf 01 00 00 00       	mov    $0x1,%edi
  401735:	e8 1f 05 00 00       	callq  401c59 <validate>
  40173a:	bf 00 00 00 00       	mov    $0x0,%edi
  40173f:	e8 7c f6 ff ff       	callq  400dc0 <exit@plt>

0000000000401744 <touch2>:
  401744:	48 83 ec 08          	sub    $0x8,%rsp
  401748:	89 fe                	mov    %edi,%esi
  40174a:	c7 05 88 3d 20 00 02 	movl   $0x2,0x203d88(%rip)        # 6054dc <vlevel>
  401751:	00 00 00 
  401754:	3b 3d 8a 3d 20 00    	cmp    0x203d8a(%rip),%edi        # 6054e4 <cookie>
  40175a:	75 1b                	jne    401777 <touch2+0x33>
  40175c:	bf b8 30 40 00       	mov    $0x4030b8,%edi
  401761:	b8 00 00 00 00       	mov    $0x0,%eax
  401766:	e8 f5 f4 ff ff       	callq  400c60 <printf@plt>
  40176b:	bf 02 00 00 00       	mov    $0x2,%edi
  401770:	e8 e4 04 00 00       	callq  401c59 <validate>
  401775:	eb 19                	jmp    401790 <touch2+0x4c>
  401777:	bf e0 30 40 00       	mov    $0x4030e0,%edi
  40177c:	b8 00 00 00 00       	mov    $0x0,%eax
  401781:	e8 da f4 ff ff       	callq  400c60 <printf@plt>
  401786:	bf 02 00 00 00       	mov    $0x2,%edi
  40178b:	e8 7b 05 00 00       	callq  401d0b <fail>
  401790:	bf 00 00 00 00       	mov    $0x0,%edi
  401795:	e8 26 f6 ff ff       	callq  400dc0 <exit@plt>

000000000040179a <hexmatch>:
  40179a:	41 54                	push   %r12
  40179c:	55                   	push   %rbp
  40179d:	53                   	push   %rbx
  40179e:	48 83 ec 70          	sub    $0x70,%rsp
  4017a2:	41 89 fc             	mov    %edi,%r12d
  4017a5:	48 89 f5             	mov    %rsi,%rbp
  4017a8:	e8 73 f5 ff ff       	callq  400d20 <random@plt>
  4017ad:	48 89 c1             	mov    %rax,%rcx
  4017b0:	48 ba 0b d7 a3 70 3d 	movabs $0xa3d70a3d70a3d70b,%rdx
  4017b7:	0a d7 a3 
  4017ba:	48 f7 ea             	imul   %rdx
  4017bd:	48 8d 04 0a          	lea    (%rdx,%rcx,1),%rax
  4017c1:	48 c1 f8 06          	sar    $0x6,%rax
  4017c5:	48 89 ce             	mov    %rcx,%rsi
  4017c8:	48 c1 fe 3f          	sar    $0x3f,%rsi
  4017cc:	48 29 f0             	sub    %rsi,%rax
  4017cf:	48 8d 04 80          	lea    (%rax,%rax,4),%rax
  4017d3:	48 8d 04 80          	lea    (%rax,%rax,4),%rax
  4017d7:	48 c1 e0 02          	shl    $0x2,%rax
  4017db:	48 29 c1             	sub    %rax,%rcx
  4017de:	48 8d 1c 0c          	lea    (%rsp,%rcx,1),%rbx
  4017e2:	44 89 e2             	mov    %r12d,%edx
  4017e5:	be b0 30 40 00       	mov    $0x4030b0,%esi
  4017ea:	48 89 df             	mov    %rbx,%rdi
  4017ed:	b8 00 00 00 00       	mov    $0x0,%eax
  4017f2:	e8 b9 f5 ff ff       	callq  400db0 <sprintf@plt>
  4017f7:	ba 09 00 00 00       	mov    $0x9,%edx
  4017fc:	48 89 de             	mov    %rbx,%rsi
  4017ff:	48 89 ef             	mov    %rbp,%rdi
  401802:	e8 09 f4 ff ff       	callq  400c10 <strncmp@plt>
  401807:	85 c0                	test   %eax,%eax
  401809:	0f 94 c0             	sete   %al
  40180c:	0f b6 c0             	movzbl %al,%eax
  40180f:	48 83 c4 70          	add    $0x70,%rsp
  401813:	5b                   	pop    %rbx
  401814:	5d                   	pop    %rbp
  401815:	41 5c                	pop    %r12
  401817:	c3                   	retq   

0000000000401818 <touch3>:
  401818:	53                   	push   %rbx
  401819:	48 89 fb             	mov    %rdi,%rbx
  40181c:	c7 05 b6 3c 20 00 03 	movl   $0x3,0x203cb6(%rip)        # 6054dc <vlevel>
  401823:	00 00 00 
  401826:	48 89 fe             	mov    %rdi,%rsi
  401829:	8b 3d b5 3c 20 00    	mov    0x203cb5(%rip),%edi        # 6054e4 <cookie>
  40182f:	e8 66 ff ff ff       	callq  40179a <hexmatch>
  401834:	85 c0                	test   %eax,%eax
  401836:	74 1e                	je     401856 <touch3+0x3e>
  401838:	48 89 de             	mov    %rbx,%rsi
  40183b:	bf 08 31 40 00       	mov    $0x403108,%edi
  401840:	b8 00 00 00 00       	mov    $0x0,%eax
  401845:	e8 16 f4 ff ff       	callq  400c60 <printf@plt>
  40184a:	bf 03 00 00 00       	mov    $0x3,%edi
  40184f:	e8 05 04 00 00       	callq  401c59 <validate>
  401854:	eb 1c                	jmp    401872 <touch3+0x5a>
  401856:	48 89 de             	mov    %rbx,%rsi
  401859:	bf 30 31 40 00       	mov    $0x403130,%edi
  40185e:	b8 00 00 00 00       	mov    $0x0,%eax
  401863:	e8 f8 f3 ff ff       	callq  400c60 <printf@plt>
  401868:	bf 03 00 00 00       	mov    $0x3,%edi
  40186d:	e8 99 04 00 00       	callq  401d0b <fail>
  401872:	bf 00 00 00 00       	mov    $0x0,%edi
  401877:	e8 44 f5 ff ff       	callq  400dc0 <exit@plt>

000000000040187c <test>:
  40187c:	48 83 ec 08          	sub    $0x8,%rsp
  401880:	b8 00 00 00 00       	mov    $0x0,%eax
  401885:	e8 78 fe ff ff       	callq  401702 <getbuf>
  40188a:	89 c6                	mov    %eax,%esi
  40188c:	bf 58 31 40 00       	mov    $0x403158,%edi
  401891:	b8 00 00 00 00       	mov    $0x0,%eax
  401896:	e8 c5 f3 ff ff       	callq  400c60 <printf@plt>
  40189b:	48 83 c4 08          	add    $0x8,%rsp
  40189f:	c3                   	retq   

00000000004018a0 <start_farm>:
  4018a0:	b8 01 00 00 00       	mov    $0x1,%eax
  4018a5:	c3                   	retq   

00000000004018a6 <setval_242>:
  4018a6:	c7 07 58 90 90 c3    	movl   $0xc3909058,(%rdi)
  4018ac:	c3                   	retq   

00000000004018ad <addval_429>:
  4018ad:	8d 87 14 32 58 c3    	lea    -0x3ca7cdec(%rdi),%eax
  4018b3:	c3                   	retq   

00000000004018b4 <addval_114>:
  4018b4:	8d 87 af c8 89 c7    	lea    -0x38763751(%rdi),%eax
  4018ba:	c3                   	retq   

00000000004018bb <setval_177>:
  4018bb:	c7 07 40 89 c7 c3    	movl   $0xc3c78940,(%rdi)
  4018c1:	c3                   	retq   

00000000004018c2 <getval_431>:
  4018c2:	b8 48 89 c7 c3       	mov    $0xc3c78948,%eax
  4018c7:	c3                   	retq   

00000000004018c8 <addval_174>:
  4018c8:	8d 87 48 89 c7 90    	lea    -0x6f3876b8(%rdi),%eax
  4018ce:	c3                   	retq   

00000000004018cf <setval_206>:
  4018cf:	c7 07 58 90 90 c1    	movl   $0xc1909058,(%rdi)
  4018d5:	c3                   	retq   

00000000004018d6 <addval_306>:
  4018d6:	8d 87 58 c7 fb ce    	lea    -0x310438a8(%rdi),%eax
  4018dc:	c3                   	retq   

00000000004018dd <mid_farm>:
  4018dd:	b8 01 00 00 00       	mov    $0x1,%eax
  4018e2:	c3                   	retq   

00000000004018e3 <add_xy>:
  4018e3:	48 8d 04 37          	lea    (%rdi,%rsi,1),%rax
  4018e7:	c3                   	retq   

00000000004018e8 <getval_315>:
  4018e8:	b8 89 c1 90 c3       	mov    $0xc390c189,%eax
  4018ed:	c3                   	retq   

00000000004018ee <setval_488>:
  4018ee:	c7 07 89 ca c3 53    	movl   $0x53c3ca89,(%rdi)
  4018f4:	c3                   	retq   

00000000004018f5 <setval_267>:
  4018f5:	c7 07 99 ca 20 d2    	movl   $0xd220ca99,(%rdi)
  4018fb:	c3                   	retq   

00000000004018fc <addval_418>:
  4018fc:	8d 87 c8 89 e0 90    	lea    -0x6f1f7638(%rdi),%eax
  401902:	c3                   	retq   

0000000000401903 <setval_408>:
  401903:	c7 07 48 09 e0 90    	movl   $0x90e00948,(%rdi)
  401909:	c3                   	retq   

000000000040190a <setval_170>:
  40190a:	c7 07 cd 48 89 e0    	movl   $0xe08948cd,(%rdi)
  401910:	c3                   	retq   

0000000000401911 <getval_344>:
  401911:	b8 8d d6 90 c3       	mov    $0xc390d68d,%eax
  401916:	c3                   	retq   

0000000000401917 <setval_181>:
  401917:	c7 07 48 89 e0 91    	movl   $0x91e08948,(%rdi)
  40191d:	c3                   	retq   

000000000040191e <getval_375>:
  40191e:	b8 d0 99 c1 c3       	mov    $0xc3c199d0,%eax
  401923:	c3                   	retq   

0000000000401924 <getval_198>:
  401924:	b8 89 c1 c2 f3       	mov    $0xf3c2c189,%eax
  401929:	c3                   	retq   

000000000040192a <setval_271>:
  40192a:	c7 07 ab 48 89 e0    	movl   $0xe08948ab,(%rdi)
  401930:	c3                   	retq   

0000000000401931 <addval_143>:
  401931:	8d 87 a9 c1 20 db    	lea    -0x24df3e57(%rdi),%eax
  401937:	c3                   	retq   

0000000000401938 <getval_262>:
  401938:	b8 8b d6 20 d2       	mov    $0xd220d68b,%eax
  40193d:	c3                   	retq   

000000000040193e <setval_473>:
  40193e:	c7 07 89 ca 92 90    	movl   $0x9092ca89,(%rdi)
  401944:	c3                   	retq   

0000000000401945 <setval_168>:
  401945:	c7 07 89 ca 00 c0    	movl   $0xc000ca89,(%rdi)
  40194b:	c3                   	retq   

000000000040194c <setval_159>:
  40194c:	c7 07 99 c1 08 c0    	movl   $0xc008c199,(%rdi)
  401952:	c3                   	retq   

0000000000401953 <setval_436>:
  401953:	c7 07 c9 d6 20 d2    	movl   $0xd220d6c9,(%rdi)
  401959:	c3                   	retq   

000000000040195a <addval_133>:
  40195a:	8d 87 9b 89 ca c2    	lea    -0x3d357665(%rdi),%eax
  401960:	c3                   	retq   

0000000000401961 <addval_447>:
  401961:	8d 87 40 89 e0 c3    	lea    -0x3c1f76c0(%rdi),%eax
  401967:	c3                   	retq   

0000000000401968 <addval_370>:
  401968:	8d 87 89 d6 c3 f9    	lea    -0x63c2977(%rdi),%eax
  40196e:	c3                   	retq   

000000000040196f <setval_202>:
  40196f:	c7 07 c9 d6 38 c0    	movl   $0xc038d6c9,(%rdi)
  401975:	c3                   	retq   

0000000000401976 <setval_497>:
  401976:	c7 07 89 ca 90 c3    	movl   $0xc390ca89,(%rdi)
  40197c:	c3                   	retq   

000000000040197d <getval_394>:
  40197d:	b8 89 d6 28 db       	mov    $0xdb28d689,%eax
  401982:	c3                   	retq   

0000000000401983 <getval_146>:
  401983:	b8 b0 89 ca c7       	mov    $0xc7ca89b0,%eax
  401988:	c3                   	retq   

0000000000401989 <getval_111>:
  401989:	b8 81 ca 84 db       	mov    $0xdb84ca81,%eax
  40198e:	c3                   	retq   

000000000040198f <getval_396>:
  40198f:	b8 89 d6 28 c9       	mov    $0xc928d689,%eax
  401994:	c3                   	retq   

0000000000401995 <setval_124>:
  401995:	c7 07 f8 81 c1 c3    	movl   $0xc3c181f8,(%rdi)
  40199b:	c3                   	retq   

000000000040199c <addval_171>:
  40199c:	8d 87 89 c1 90 c3    	lea    -0x3c6f3e77(%rdi),%eax
  4019a2:	c3                   	retq   

00000000004019a3 <getval_374>:
  4019a3:	b8 d6 89 d6 c3       	mov    $0xc3d689d6,%eax
  4019a8:	c3                   	retq   

00000000004019a9 <getval_288>:
  4019a9:	b8 48 89 e0 91       	mov    $0x91e08948,%eax
  4019ae:	c3                   	retq   

00000000004019af <getval_355>:
  4019af:	b8 48 89 e0 c1       	mov    $0xc1e08948,%eax
  4019b4:	c3                   	retq   

00000000004019b5 <addval_182>:
  4019b5:	8d 87 09 c1 08 d2    	lea    -0x2df73ef7(%rdi),%eax
  4019bb:	c3                   	retq   

00000000004019bc <end_farm>:
  4019bc:	b8 01 00 00 00       	mov    $0x1,%eax
  4019c1:	c3                   	retq   
  4019c2:	66 2e 0f 1f 84 00 00 	nopw   %cs:0x0(%rax,%rax,1)
  4019c9:	00 00 00 
  4019cc:	0f 1f 40 00          	nopl   0x0(%rax)

00000000004019d0 <save_char>:
  4019d0:	8b 05 2e 47 20 00    	mov    0x20472e(%rip),%eax        # 606104 <gets_cnt>
  4019d6:	3d ff 03 00 00       	cmp    $0x3ff,%eax
  4019db:	7f 49                	jg     401a26 <save_char+0x56>
  4019dd:	8d 14 40             	lea    (%rax,%rax,2),%edx
  4019e0:	89 f9                	mov    %edi,%ecx
  4019e2:	c0 e9 04             	shr    $0x4,%cl
  4019e5:	83 e1 0f             	and    $0xf,%ecx
  4019e8:	0f b6 b1 80 34 40 00 	movzbl 0x403480(%rcx),%esi
  4019ef:	48 63 ca             	movslq %edx,%rcx
  4019f2:	40 88 b1 00 55 60 00 	mov    %sil,0x605500(%rcx)
  4019f9:	8d 4a 01             	lea    0x1(%rdx),%ecx
  4019fc:	83 e7 0f             	and    $0xf,%edi
  4019ff:	0f b6 b7 80 34 40 00 	movzbl 0x403480(%rdi),%esi
  401a06:	48 63 c9             	movslq %ecx,%rcx
  401a09:	40 88 b1 00 55 60 00 	mov    %sil,0x605500(%rcx)
  401a10:	83 c2 02             	add    $0x2,%edx
  401a13:	48 63 d2             	movslq %edx,%rdx
  401a16:	c6 82 00 55 60 00 20 	movb   $0x20,0x605500(%rdx)
  401a1d:	83 c0 01             	add    $0x1,%eax
  401a20:	89 05 de 46 20 00    	mov    %eax,0x2046de(%rip)        # 606104 <gets_cnt>
  401a26:	f3 c3                	repz retq 

0000000000401a28 <save_term>:
  401a28:	8b 05 d6 46 20 00    	mov    0x2046d6(%rip),%eax        # 606104 <gets_cnt>
  401a2e:	8d 04 40             	lea    (%rax,%rax,2),%eax
  401a31:	48 98                	cltq   
  401a33:	c6 80 00 55 60 00 00 	movb   $0x0,0x605500(%rax)
  401a3a:	c3                   	retq   

0000000000401a3b <check_fail>:
  401a3b:	48 83 ec 08          	sub    $0x8,%rsp
  401a3f:	0f be 35 c2 46 20 00 	movsbl 0x2046c2(%rip),%esi        # 606108 <target_prefix>
  401a46:	b9 00 55 60 00       	mov    $0x605500,%ecx
  401a4b:	8b 15 87 3a 20 00    	mov    0x203a87(%rip),%edx        # 6054d8 <check_level>
  401a51:	bf 7b 31 40 00       	mov    $0x40317b,%edi
  401a56:	b8 00 00 00 00       	mov    $0x0,%eax
  401a5b:	e8 00 f2 ff ff       	callq  400c60 <printf@plt>
  401a60:	bf 01 00 00 00       	mov    $0x1,%edi
  401a65:	e8 56 f3 ff ff       	callq  400dc0 <exit@plt>

0000000000401a6a <Gets>:
  401a6a:	41 54                	push   %r12
  401a6c:	55                   	push   %rbp
  401a6d:	53                   	push   %rbx
  401a6e:	49 89 fc             	mov    %rdi,%r12
  401a71:	c7 05 89 46 20 00 00 	movl   $0x0,0x204689(%rip)        # 606104 <gets_cnt>
  401a78:	00 00 00 
  401a7b:	48 89 fb             	mov    %rdi,%rbx
  401a7e:	eb 11                	jmp    401a91 <Gets+0x27>
  401a80:	48 8d 6b 01          	lea    0x1(%rbx),%rbp
  401a84:	88 03                	mov    %al,(%rbx)
  401a86:	0f b6 f8             	movzbl %al,%edi
  401a89:	e8 42 ff ff ff       	callq  4019d0 <save_char>
  401a8e:	48 89 eb             	mov    %rbp,%rbx
  401a91:	48 8b 3d 38 3a 20 00 	mov    0x203a38(%rip),%rdi        # 6054d0 <infile>
  401a98:	e8 93 f2 ff ff       	callq  400d30 <_IO_getc@plt>
  401a9d:	83 f8 ff             	cmp    $0xffffffff,%eax
  401aa0:	74 05                	je     401aa7 <Gets+0x3d>
  401aa2:	83 f8 0a             	cmp    $0xa,%eax
  401aa5:	75 d9                	jne    401a80 <Gets+0x16>
  401aa7:	c6 03 00             	movb   $0x0,(%rbx)
  401aaa:	b8 00 00 00 00       	mov    $0x0,%eax
  401aaf:	e8 74 ff ff ff       	callq  401a28 <save_term>
  401ab4:	4c 89 e0             	mov    %r12,%rax
  401ab7:	5b                   	pop    %rbx
  401ab8:	5d                   	pop    %rbp
  401ab9:	41 5c                	pop    %r12
  401abb:	c3                   	retq   

0000000000401abc <notify_server>:
  401abc:	83 3d 25 3a 20 00 00 	cmpl   $0x0,0x203a25(%rip)        # 6054e8 <is_checker>
  401ac3:	0f 85 8e 01 00 00    	jne    401c57 <notify_server+0x19b>
  401ac9:	53                   	push   %rbx
  401aca:	48 81 ec 10 40 00 00 	sub    $0x4010,%rsp
  401ad1:	89 fb                	mov    %edi,%ebx
  401ad3:	8b 05 2b 46 20 00    	mov    0x20462b(%rip),%eax        # 606104 <gets_cnt>
  401ad9:	83 c0 64             	add    $0x64,%eax
  401adc:	3d 00 20 00 00       	cmp    $0x2000,%eax
  401ae1:	7e 19                	jle    401afc <notify_server+0x40>
  401ae3:	bf b0 32 40 00       	mov    $0x4032b0,%edi
  401ae8:	b8 00 00 00 00       	mov    $0x0,%eax
  401aed:	e8 6e f1 ff ff       	callq  400c60 <printf@plt>
  401af2:	bf 01 00 00 00       	mov    $0x1,%edi
  401af7:	e8 c4 f2 ff ff       	callq  400dc0 <exit@plt>
  401afc:	44 0f be 0d 04 46 20 	movsbl 0x204604(%rip),%r9d        # 606108 <target_prefix>
  401b03:	00 
  401b04:	83 3d 7d 39 20 00 00 	cmpl   $0x0,0x20397d(%rip)        # 605488 <notify>
  401b0b:	74 09                	je     401b16 <notify_server+0x5a>
  401b0d:	44 8b 05 cc 39 20 00 	mov    0x2039cc(%rip),%r8d        # 6054e0 <authkey>
  401b14:	eb 06                	jmp    401b1c <notify_server+0x60>
  401b16:	41 b8 ff ff ff ff    	mov    $0xffffffff,%r8d
  401b1c:	85 db                	test   %ebx,%ebx
  401b1e:	74 07                	je     401b27 <notify_server+0x6b>
  401b20:	b9 91 31 40 00       	mov    $0x403191,%ecx
  401b25:	eb 05                	jmp    401b2c <notify_server+0x70>
  401b27:	b9 96 31 40 00       	mov    $0x403196,%ecx
  401b2c:	48 c7 44 24 08 00 55 	movq   $0x605500,0x8(%rsp)
  401b33:	60 00 
  401b35:	89 34 24             	mov    %esi,(%rsp)
  401b38:	8b 15 0a 36 20 00    	mov    0x20360a(%rip),%edx        # 605148 <target_id>
  401b3e:	be 9b 31 40 00       	mov    $0x40319b,%esi
  401b43:	48 8d bc 24 10 20 00 	lea    0x2010(%rsp),%rdi
  401b4a:	00 
  401b4b:	b8 00 00 00 00       	mov    $0x0,%eax
  401b50:	e8 5b f2 ff ff       	callq  400db0 <sprintf@plt>
  401b55:	83 3d 2c 39 20 00 00 	cmpl   $0x0,0x20392c(%rip)        # 605488 <notify>
  401b5c:	74 78                	je     401bd6 <notify_server+0x11a>
  401b5e:	85 db                	test   %ebx,%ebx
  401b60:	74 68                	je     401bca <notify_server+0x10e>
  401b62:	4c 8d 4c 24 10       	lea    0x10(%rsp),%r9
  401b67:	41 b8 00 00 00 00    	mov    $0x0,%r8d
  401b6d:	48 8d 8c 24 10 20 00 	lea    0x2010(%rsp),%rcx
  401b74:	00 
  401b75:	48 8b 15 d4 35 20 00 	mov    0x2035d4(%rip),%rdx        # 605150 <lab>
  401b7c:	48 8b 35 d5 35 20 00 	mov    0x2035d5(%rip),%rsi        # 605158 <course>
  401b83:	48 8b 3d b6 35 20 00 	mov    0x2035b6(%rip),%rdi        # 605140 <user_id>
  401b8a:	e8 94 0f 00 00       	callq  402b23 <driver_post>
  401b8f:	85 c0                	test   %eax,%eax
  401b91:	79 1e                	jns    401bb1 <notify_server+0xf5>
  401b93:	48 8d 74 24 10       	lea    0x10(%rsp),%rsi
  401b98:	bf b7 31 40 00       	mov    $0x4031b7,%edi
  401b9d:	b8 00 00 00 00       	mov    $0x0,%eax
  401ba2:	e8 b9 f0 ff ff       	callq  400c60 <printf@plt>
  401ba7:	bf 01 00 00 00       	mov    $0x1,%edi
  401bac:	e8 0f f2 ff ff       	callq  400dc0 <exit@plt>
  401bb1:	bf e0 32 40 00       	mov    $0x4032e0,%edi
  401bb6:	e8 75 f0 ff ff       	callq  400c30 <puts@plt>
  401bbb:	bf c3 31 40 00       	mov    $0x4031c3,%edi
  401bc0:	e8 6b f0 ff ff       	callq  400c30 <puts@plt>
  401bc5:	e9 85 00 00 00       	jmpq   401c4f <notify_server+0x193>
  401bca:	bf cd 31 40 00       	mov    $0x4031cd,%edi
  401bcf:	e8 5c f0 ff ff       	callq  400c30 <puts@plt>
  401bd4:	eb 79                	jmp    401c4f <notify_server+0x193>
  401bd6:	85 db                	test   %ebx,%ebx
  401bd8:	74 08                	je     401be2 <notify_server+0x126>
  401bda:	be 91 31 40 00       	mov    $0x403191,%esi
  401bdf:	90                   	nop
  401be0:	eb 05                	jmp    401be7 <notify_server+0x12b>
  401be2:	be 96 31 40 00       	mov    $0x403196,%esi
  401be7:	bf 18 33 40 00       	mov    $0x403318,%edi
  401bec:	b8 00 00 00 00       	mov    $0x0,%eax
  401bf1:	e8 6a f0 ff ff       	callq  400c60 <printf@plt>
  401bf6:	48 8b 35 43 35 20 00 	mov    0x203543(%rip),%rsi        # 605140 <user_id>
  401bfd:	bf d4 31 40 00       	mov    $0x4031d4,%edi
  401c02:	b8 00 00 00 00       	mov    $0x0,%eax
  401c07:	e8 54 f0 ff ff       	callq  400c60 <printf@plt>
  401c0c:	48 8b 35 45 35 20 00 	mov    0x203545(%rip),%rsi        # 605158 <course>
  401c13:	bf e1 31 40 00       	mov    $0x4031e1,%edi
  401c18:	b8 00 00 00 00       	mov    $0x0,%eax
  401c1d:	e8 3e f0 ff ff       	callq  400c60 <printf@plt>
  401c22:	48 8b 35 27 35 20 00 	mov    0x203527(%rip),%rsi        # 605150 <lab>
  401c29:	bf ed 31 40 00       	mov    $0x4031ed,%edi
  401c2e:	b8 00 00 00 00       	mov    $0x0,%eax
  401c33:	e8 28 f0 ff ff       	callq  400c60 <printf@plt>
  401c38:	48 8d b4 24 10 20 00 	lea    0x2010(%rsp),%rsi
  401c3f:	00 
  401c40:	bf f6 31 40 00       	mov    $0x4031f6,%edi
  401c45:	b8 00 00 00 00       	mov    $0x0,%eax
  401c4a:	e8 11 f0 ff ff       	callq  400c60 <printf@plt>
  401c4f:	48 81 c4 10 40 00 00 	add    $0x4010,%rsp
  401c56:	5b                   	pop    %rbx
  401c57:	f3 c3                	repz retq 

0000000000401c59 <validate>:
  401c59:	53                   	push   %rbx
  401c5a:	89 fb                	mov    %edi,%ebx
  401c5c:	83 3d 85 38 20 00 00 	cmpl   $0x0,0x203885(%rip)        # 6054e8 <is_checker>
  401c63:	74 60                	je     401cc5 <validate+0x6c>
  401c65:	39 3d 71 38 20 00    	cmp    %edi,0x203871(%rip)        # 6054dc <vlevel>
  401c6b:	74 14                	je     401c81 <validate+0x28>
  401c6d:	bf 02 32 40 00       	mov    $0x403202,%edi
  401c72:	e8 b9 ef ff ff       	callq  400c30 <puts@plt>
  401c77:	b8 00 00 00 00       	mov    $0x0,%eax
  401c7c:	e8 ba fd ff ff       	callq  401a3b <check_fail>
  401c81:	8b 35 51 38 20 00    	mov    0x203851(%rip),%esi        # 6054d8 <check_level>
  401c87:	39 fe                	cmp    %edi,%esi
  401c89:	74 1b                	je     401ca6 <validate+0x4d>
  401c8b:	89 fa                	mov    %edi,%edx
  401c8d:	bf 40 33 40 00       	mov    $0x403340,%edi
  401c92:	b8 00 00 00 00       	mov    $0x0,%eax
  401c97:	e8 c4 ef ff ff       	callq  400c60 <printf@plt>
  401c9c:	b8 00 00 00 00       	mov    $0x0,%eax
  401ca1:	e8 95 fd ff ff       	callq  401a3b <check_fail>
  401ca6:	0f be 35 5b 44 20 00 	movsbl 0x20445b(%rip),%esi        # 606108 <target_prefix>
  401cad:	b9 00 55 60 00       	mov    $0x605500,%ecx
  401cb2:	89 fa                	mov    %edi,%edx
  401cb4:	bf 20 32 40 00       	mov    $0x403220,%edi
  401cb9:	b8 00 00 00 00       	mov    $0x0,%eax
  401cbe:	e8 9d ef ff ff       	callq  400c60 <printf@plt>
  401cc3:	eb 44                	jmp    401d09 <validate+0xb0>
  401cc5:	39 3d 11 38 20 00    	cmp    %edi,0x203811(%rip)        # 6054dc <vlevel>
  401ccb:	74 18                	je     401ce5 <validate+0x8c>
  401ccd:	bf 02 32 40 00       	mov    $0x403202,%edi
  401cd2:	e8 59 ef ff ff       	callq  400c30 <puts@plt>
  401cd7:	89 de                	mov    %ebx,%esi
  401cd9:	bf 00 00 00 00       	mov    $0x0,%edi
  401cde:	e8 d9 fd ff ff       	callq  401abc <notify_server>
  401ce3:	eb 24                	jmp    401d09 <validate+0xb0>
  401ce5:	0f be 15 1c 44 20 00 	movsbl 0x20441c(%rip),%edx        # 606108 <target_prefix>
  401cec:	89 fe                	mov    %edi,%esi
  401cee:	bf 68 33 40 00       	mov    $0x403368,%edi
  401cf3:	b8 00 00 00 00       	mov    $0x0,%eax
  401cf8:	e8 63 ef ff ff       	callq  400c60 <printf@plt>
  401cfd:	89 de                	mov    %ebx,%esi
  401cff:	bf 01 00 00 00       	mov    $0x1,%edi
  401d04:	e8 b3 fd ff ff       	callq  401abc <notify_server>
  401d09:	5b                   	pop    %rbx
  401d0a:	c3                   	retq   

0000000000401d0b <fail>:
  401d0b:	48 83 ec 08          	sub    $0x8,%rsp
  401d0f:	83 3d d2 37 20 00 00 	cmpl   $0x0,0x2037d2(%rip)        # 6054e8 <is_checker>
  401d16:	74 0a                	je     401d22 <fail+0x17>
  401d18:	b8 00 00 00 00       	mov    $0x0,%eax
  401d1d:	e8 19 fd ff ff       	callq  401a3b <check_fail>
  401d22:	89 fe                	mov    %edi,%esi
  401d24:	bf 00 00 00 00       	mov    $0x0,%edi
  401d29:	e8 8e fd ff ff       	callq  401abc <notify_server>
  401d2e:	48 83 c4 08          	add    $0x8,%rsp
  401d32:	c3                   	retq   

0000000000401d33 <bushandler>:
  401d33:	48 83 ec 08          	sub    $0x8,%rsp
  401d37:	83 3d aa 37 20 00 00 	cmpl   $0x0,0x2037aa(%rip)        # 6054e8 <is_checker>
  401d3e:	74 14                	je     401d54 <bushandler+0x21>
  401d40:	bf 35 32 40 00       	mov    $0x403235,%edi
  401d45:	e8 e6 ee ff ff       	callq  400c30 <puts@plt>
  401d4a:	b8 00 00 00 00       	mov    $0x0,%eax
  401d4f:	e8 e7 fc ff ff       	callq  401a3b <check_fail>
  401d54:	bf a0 33 40 00       	mov    $0x4033a0,%edi
  401d59:	e8 d2 ee ff ff       	callq  400c30 <puts@plt>
  401d5e:	bf 3f 32 40 00       	mov    $0x40323f,%edi
  401d63:	e8 c8 ee ff ff       	callq  400c30 <puts@plt>
  401d68:	be 00 00 00 00       	mov    $0x0,%esi
  401d6d:	bf 00 00 00 00       	mov    $0x0,%edi
  401d72:	e8 45 fd ff ff       	callq  401abc <notify_server>
  401d77:	bf 01 00 00 00       	mov    $0x1,%edi
  401d7c:	e8 3f f0 ff ff       	callq  400dc0 <exit@plt>

0000000000401d81 <seghandler>:
  401d81:	48 83 ec 08          	sub    $0x8,%rsp
  401d85:	83 3d 5c 37 20 00 00 	cmpl   $0x0,0x20375c(%rip)        # 6054e8 <is_checker>
  401d8c:	74 14                	je     401da2 <seghandler+0x21>
  401d8e:	bf 55 32 40 00       	mov    $0x403255,%edi
  401d93:	e8 98 ee ff ff       	callq  400c30 <puts@plt>
  401d98:	b8 00 00 00 00       	mov    $0x0,%eax
  401d9d:	e8 99 fc ff ff       	callq  401a3b <check_fail>
  401da2:	bf c0 33 40 00       	mov    $0x4033c0,%edi
  401da7:	e8 84 ee ff ff       	callq  400c30 <puts@plt>
  401dac:	bf 3f 32 40 00       	mov    $0x40323f,%edi
  401db1:	e8 7a ee ff ff       	callq  400c30 <puts@plt>
  401db6:	be 00 00 00 00       	mov    $0x0,%esi
  401dbb:	bf 00 00 00 00       	mov    $0x0,%edi
  401dc0:	e8 f7 fc ff ff       	callq  401abc <notify_server>
  401dc5:	bf 01 00 00 00       	mov    $0x1,%edi
  401dca:	e8 f1 ef ff ff       	callq  400dc0 <exit@plt>

0000000000401dcf <illegalhandler>:
  401dcf:	48 83 ec 08          	sub    $0x8,%rsp
  401dd3:	83 3d 0e 37 20 00 00 	cmpl   $0x0,0x20370e(%rip)        # 6054e8 <is_checker>
  401dda:	74 14                	je     401df0 <illegalhandler+0x21>
  401ddc:	bf 68 32 40 00       	mov    $0x403268,%edi
  401de1:	e8 4a ee ff ff       	callq  400c30 <puts@plt>
  401de6:	b8 00 00 00 00       	mov    $0x0,%eax
  401deb:	e8 4b fc ff ff       	callq  401a3b <check_fail>
  401df0:	bf e8 33 40 00       	mov    $0x4033e8,%edi
  401df5:	e8 36 ee ff ff       	callq  400c30 <puts@plt>
  401dfa:	bf 3f 32 40 00       	mov    $0x40323f,%edi
  401dff:	e8 2c ee ff ff       	callq  400c30 <puts@plt>
  401e04:	be 00 00 00 00       	mov    $0x0,%esi
  401e09:	bf 00 00 00 00       	mov    $0x0,%edi
  401e0e:	e8 a9 fc ff ff       	callq  401abc <notify_server>
  401e13:	bf 01 00 00 00       	mov    $0x1,%edi
  401e18:	e8 a3 ef ff ff       	callq  400dc0 <exit@plt>

0000000000401e1d <sigalrmhandler>:
  401e1d:	48 83 ec 08          	sub    $0x8,%rsp
  401e21:	83 3d c0 36 20 00 00 	cmpl   $0x0,0x2036c0(%rip)        # 6054e8 <is_checker>
  401e28:	74 14                	je     401e3e <sigalrmhandler+0x21>
  401e2a:	bf 7c 32 40 00       	mov    $0x40327c,%edi
  401e2f:	e8 fc ed ff ff       	callq  400c30 <puts@plt>
  401e34:	b8 00 00 00 00       	mov    $0x0,%eax
  401e39:	e8 fd fb ff ff       	callq  401a3b <check_fail>
  401e3e:	be 05 00 00 00       	mov    $0x5,%esi
  401e43:	bf 18 34 40 00       	mov    $0x403418,%edi
  401e48:	b8 00 00 00 00       	mov    $0x0,%eax
  401e4d:	e8 0e ee ff ff       	callq  400c60 <printf@plt>
  401e52:	be 00 00 00 00       	mov    $0x0,%esi
  401e57:	bf 00 00 00 00       	mov    $0x0,%edi
  401e5c:	e8 5b fc ff ff       	callq  401abc <notify_server>
  401e61:	bf 01 00 00 00       	mov    $0x1,%edi
  401e66:	e8 55 ef ff ff       	callq  400dc0 <exit@plt>

0000000000401e6b <launch>:
  401e6b:	55                   	push   %rbp
  401e6c:	48 89 e5             	mov    %rsp,%rbp
  401e6f:	48 89 fa             	mov    %rdi,%rdx
  401e72:	48 8d 47 1e          	lea    0x1e(%rdi),%rax
  401e76:	48 83 e0 f0          	and    $0xfffffffffffffff0,%rax
  401e7a:	48 29 c4             	sub    %rax,%rsp
  401e7d:	48 8d 7c 24 0f       	lea    0xf(%rsp),%rdi
  401e82:	48 83 e7 f0          	and    $0xfffffffffffffff0,%rdi
  401e86:	be f4 00 00 00       	mov    $0xf4,%esi
  401e8b:	e8 e0 ed ff ff       	callq  400c70 <memset@plt>
  401e90:	48 8b 05 09 36 20 00 	mov    0x203609(%rip),%rax        # 6054a0 <stdin@@GLIBC_2.2.5>
  401e97:	48 39 05 32 36 20 00 	cmp    %rax,0x203632(%rip)        # 6054d0 <infile>
  401e9e:	75 0f                	jne    401eaf <launch+0x44>
  401ea0:	bf 84 32 40 00       	mov    $0x403284,%edi
  401ea5:	b8 00 00 00 00       	mov    $0x0,%eax
  401eaa:	e8 b1 ed ff ff       	callq  400c60 <printf@plt>
  401eaf:	c7 05 23 36 20 00 00 	movl   $0x0,0x203623(%rip)        # 6054dc <vlevel>
  401eb6:	00 00 00 
  401eb9:	b8 00 00 00 00       	mov    $0x0,%eax
  401ebe:	e8 b9 f9 ff ff       	callq  40187c <test>
  401ec3:	83 3d 1e 36 20 00 00 	cmpl   $0x0,0x20361e(%rip)        # 6054e8 <is_checker>
  401eca:	74 14                	je     401ee0 <launch+0x75>
  401ecc:	bf 91 32 40 00       	mov    $0x403291,%edi
  401ed1:	e8 5a ed ff ff       	callq  400c30 <puts@plt>
  401ed6:	b8 00 00 00 00       	mov    $0x0,%eax
  401edb:	e8 5b fb ff ff       	callq  401a3b <check_fail>
  401ee0:	bf 9c 32 40 00       	mov    $0x40329c,%edi
  401ee5:	e8 46 ed ff ff       	callq  400c30 <puts@plt>
  401eea:	c9                   	leaveq 
  401eeb:	c3                   	retq   

0000000000401eec <stable_launch>:
  401eec:	53                   	push   %rbx
  401eed:	48 89 3d d4 35 20 00 	mov    %rdi,0x2035d4(%rip)        # 6054c8 <global_offset>
  401ef4:	41 b9 00 00 00 00    	mov    $0x0,%r9d
  401efa:	41 b8 00 00 00 00    	mov    $0x0,%r8d
  401f00:	b9 32 01 00 00       	mov    $0x132,%ecx
  401f05:	ba 07 00 00 00       	mov    $0x7,%edx
  401f0a:	be 00 00 10 00       	mov    $0x100000,%esi
  401f0f:	bf 00 60 58 55       	mov    $0x55586000,%edi
  401f14:	e8 37 ed ff ff       	callq  400c50 <mmap@plt>
  401f19:	48 89 c3             	mov    %rax,%rbx
  401f1c:	48 3d 00 60 58 55    	cmp    $0x55586000,%rax
  401f22:	74 32                	je     401f56 <stable_launch+0x6a>
  401f24:	be 00 00 10 00       	mov    $0x100000,%esi
  401f29:	48 89 c7             	mov    %rax,%rdi
  401f2c:	e8 1f ee ff ff       	callq  400d50 <munmap@plt>
  401f31:	ba 00 60 58 55       	mov    $0x55586000,%edx
  401f36:	be 50 34 40 00       	mov    $0x403450,%esi
  401f3b:	48 8b 3d 6e 35 20 00 	mov    0x20356e(%rip),%rdi        # 6054b0 <stderr@@GLIBC_2.2.5>
  401f42:	b8 00 00 00 00       	mov    $0x0,%eax
  401f47:	e8 94 ed ff ff       	callq  400ce0 <fprintf@plt>
  401f4c:	bf 01 00 00 00       	mov    $0x1,%edi
  401f51:	e8 6a ee ff ff       	callq  400dc0 <exit@plt>
  401f56:	48 8d 90 f8 ff 0f 00 	lea    0xffff8(%rax),%rdx
  401f5d:	48 89 15 ac 41 20 00 	mov    %rdx,0x2041ac(%rip)        # 606110 <stack_top>
  401f64:	48 89 e0             	mov    %rsp,%rax
  401f67:	48 89 d4             	mov    %rdx,%rsp
  401f6a:	48 89 c2             	mov    %rax,%rdx
  401f6d:	48 89 15 4c 35 20 00 	mov    %rdx,0x20354c(%rip)        # 6054c0 <global_save_stack>
  401f74:	48 8b 3d 4d 35 20 00 	mov    0x20354d(%rip),%rdi        # 6054c8 <global_offset>
  401f7b:	e8 eb fe ff ff       	callq  401e6b <launch>
  401f80:	48 8b 05 39 35 20 00 	mov    0x203539(%rip),%rax        # 6054c0 <global_save_stack>
  401f87:	48 89 c4             	mov    %rax,%rsp
  401f8a:	be 00 00 10 00       	mov    $0x100000,%esi
  401f8f:	48 89 df             	mov    %rbx,%rdi
  401f92:	e8 b9 ed ff ff       	callq  400d50 <munmap@plt>
  401f97:	5b                   	pop    %rbx
  401f98:	c3                   	retq   
  401f99:	0f 1f 80 00 00 00 00 	nopl   0x0(%rax)

0000000000401fa0 <rio_readinitb>:
  401fa0:	89 37                	mov    %esi,(%rdi)
  401fa2:	c7 47 04 00 00 00 00 	movl   $0x0,0x4(%rdi)
  401fa9:	48 8d 47 10          	lea    0x10(%rdi),%rax
  401fad:	48 89 47 08          	mov    %rax,0x8(%rdi)
  401fb1:	c3                   	retq   

0000000000401fb2 <sigalrm_handler>:
  401fb2:	48 83 ec 08          	sub    $0x8,%rsp
  401fb6:	ba 00 00 00 00       	mov    $0x0,%edx
  401fbb:	be 90 34 40 00       	mov    $0x403490,%esi
  401fc0:	48 8b 3d e9 34 20 00 	mov    0x2034e9(%rip),%rdi        # 6054b0 <stderr@@GLIBC_2.2.5>
  401fc7:	b8 00 00 00 00       	mov    $0x0,%eax
  401fcc:	e8 0f ed ff ff       	callq  400ce0 <fprintf@plt>
  401fd1:	bf 01 00 00 00       	mov    $0x1,%edi
  401fd6:	e8 e5 ed ff ff       	callq  400dc0 <exit@plt>

0000000000401fdb <urlencode>:
  401fdb:	41 54                	push   %r12
  401fdd:	55                   	push   %rbp
  401fde:	53                   	push   %rbx
  401fdf:	48 83 ec 10          	sub    $0x10,%rsp
  401fe3:	48 89 fb             	mov    %rdi,%rbx
  401fe6:	48 89 f5             	mov    %rsi,%rbp
  401fe9:	b8 00 00 00 00       	mov    $0x0,%eax
  401fee:	48 c7 c1 ff ff ff ff 	mov    $0xffffffffffffffff,%rcx
  401ff5:	f2 ae                	repnz scas %es:(%rdi),%al
  401ff7:	48 f7 d1             	not    %rcx
  401ffa:	8d 41 ff             	lea    -0x1(%rcx),%eax
  401ffd:	e9 93 00 00 00       	jmpq   402095 <urlencode+0xba>
  402002:	0f b6 13             	movzbl (%rbx),%edx
  402005:	80 fa 2a             	cmp    $0x2a,%dl
  402008:	0f 94 c1             	sete   %cl
  40200b:	80 fa 2d             	cmp    $0x2d,%dl
  40200e:	0f 94 c0             	sete   %al
  402011:	08 c1                	or     %al,%cl
  402013:	75 1f                	jne    402034 <urlencode+0x59>
  402015:	80 fa 2e             	cmp    $0x2e,%dl
  402018:	74 1a                	je     402034 <urlencode+0x59>
  40201a:	80 fa 5f             	cmp    $0x5f,%dl
  40201d:	74 15                	je     402034 <urlencode+0x59>
  40201f:	8d 42 d0             	lea    -0x30(%rdx),%eax
  402022:	3c 09                	cmp    $0x9,%al
  402024:	76 0e                	jbe    402034 <urlencode+0x59>
  402026:	8d 42 bf             	lea    -0x41(%rdx),%eax
  402029:	3c 19                	cmp    $0x19,%al
  40202b:	76 07                	jbe    402034 <urlencode+0x59>
  40202d:	8d 42 9f             	lea    -0x61(%rdx),%eax
  402030:	3c 19                	cmp    $0x19,%al
  402032:	77 09                	ja     40203d <urlencode+0x62>
  402034:	88 55 00             	mov    %dl,0x0(%rbp)
  402037:	48 8d 6d 01          	lea    0x1(%rbp),%rbp
  40203b:	eb 51                	jmp    40208e <urlencode+0xb3>
  40203d:	80 fa 20             	cmp    $0x20,%dl
  402040:	75 0a                	jne    40204c <urlencode+0x71>
  402042:	c6 45 00 2b          	movb   $0x2b,0x0(%rbp)
  402046:	48 8d 6d 01          	lea    0x1(%rbp),%rbp
  40204a:	eb 42                	jmp    40208e <urlencode+0xb3>
  40204c:	8d 42 e0             	lea    -0x20(%rdx),%eax
  40204f:	3c 5f                	cmp    $0x5f,%al
  402051:	0f 96 c1             	setbe  %cl
  402054:	80 fa 09             	cmp    $0x9,%dl
  402057:	0f 94 c0             	sete   %al
  40205a:	08 c1                	or     %al,%cl
  40205c:	74 45                	je     4020a3 <urlencode+0xc8>
  40205e:	0f b6 d2             	movzbl %dl,%edx
  402061:	be 28 35 40 00       	mov    $0x403528,%esi
  402066:	48 89 e7             	mov    %rsp,%rdi
  402069:	b8 00 00 00 00       	mov    $0x0,%eax
  40206e:	e8 3d ed ff ff       	callq  400db0 <sprintf@plt>
  402073:	0f b6 04 24          	movzbl (%rsp),%eax
  402077:	88 45 00             	mov    %al,0x0(%rbp)
  40207a:	0f b6 44 24 01       	movzbl 0x1(%rsp),%eax
  40207f:	88 45 01             	mov    %al,0x1(%rbp)
  402082:	0f b6 44 24 02       	movzbl 0x2(%rsp),%eax
  402087:	88 45 02             	mov    %al,0x2(%rbp)
  40208a:	48 8d 6d 03          	lea    0x3(%rbp),%rbp
  40208e:	48 83 c3 01          	add    $0x1,%rbx
  402092:	44 89 e0             	mov    %r12d,%eax
  402095:	44 8d 60 ff          	lea    -0x1(%rax),%r12d
  402099:	85 c0                	test   %eax,%eax
  40209b:	0f 85 61 ff ff ff    	jne    402002 <urlencode+0x27>
  4020a1:	eb 05                	jmp    4020a8 <urlencode+0xcd>
  4020a3:	b8 ff ff ff ff       	mov    $0xffffffff,%eax
  4020a8:	48 83 c4 10          	add    $0x10,%rsp
  4020ac:	5b                   	pop    %rbx
  4020ad:	5d                   	pop    %rbp
  4020ae:	41 5c                	pop    %r12
  4020b0:	c3                   	retq   

00000000004020b1 <rio_writen>:
  4020b1:	41 55                	push   %r13
  4020b3:	41 54                	push   %r12
  4020b5:	55                   	push   %rbp
  4020b6:	53                   	push   %rbx
  4020b7:	48 83 ec 08          	sub    $0x8,%rsp
  4020bb:	41 89 fc             	mov    %edi,%r12d
  4020be:	48 89 f5             	mov    %rsi,%rbp
  4020c1:	49 89 d5             	mov    %rdx,%r13
  4020c4:	48 89 d3             	mov    %rdx,%rbx
  4020c7:	eb 28                	jmp    4020f1 <rio_writen+0x40>
  4020c9:	48 89 da             	mov    %rbx,%rdx
  4020cc:	48 89 ee             	mov    %rbp,%rsi
  4020cf:	44 89 e7             	mov    %r12d,%edi
  4020d2:	e8 69 eb ff ff       	callq  400c40 <write@plt>
  4020d7:	48 85 c0             	test   %rax,%rax
  4020da:	7f 0f                	jg     4020eb <rio_writen+0x3a>
  4020dc:	e8 0f eb ff ff       	callq  400bf0 <__errno_location@plt>
  4020e1:	83 38 04             	cmpl   $0x4,(%rax)
  4020e4:	75 15                	jne    4020fb <rio_writen+0x4a>
  4020e6:	b8 00 00 00 00       	mov    $0x0,%eax
  4020eb:	48 29 c3             	sub    %rax,%rbx
  4020ee:	48 01 c5             	add    %rax,%rbp
  4020f1:	48 85 db             	test   %rbx,%rbx
  4020f4:	75 d3                	jne    4020c9 <rio_writen+0x18>
  4020f6:	4c 89 e8             	mov    %r13,%rax
  4020f9:	eb 07                	jmp    402102 <rio_writen+0x51>
  4020fb:	48 c7 c0 ff ff ff ff 	mov    $0xffffffffffffffff,%rax
  402102:	48 83 c4 08          	add    $0x8,%rsp
  402106:	5b                   	pop    %rbx
  402107:	5d                   	pop    %rbp
  402108:	41 5c                	pop    %r12
  40210a:	41 5d                	pop    %r13
  40210c:	c3                   	retq   

000000000040210d <rio_read>:
  40210d:	41 56                	push   %r14
  40210f:	41 55                	push   %r13
  402111:	41 54                	push   %r12
  402113:	55                   	push   %rbp
  402114:	53                   	push   %rbx
  402115:	48 89 fb             	mov    %rdi,%rbx
  402118:	49 89 f6             	mov    %rsi,%r14
  40211b:	49 89 d5             	mov    %rdx,%r13
  40211e:	4c 8d 67 10          	lea    0x10(%rdi),%r12
  402122:	eb 2a                	jmp    40214e <rio_read+0x41>
  402124:	ba 00 20 00 00       	mov    $0x2000,%edx
  402129:	4c 89 e6             	mov    %r12,%rsi
  40212c:	8b 3b                	mov    (%rbx),%edi
  40212e:	e8 6d eb ff ff       	callq  400ca0 <read@plt>
  402133:	89 43 04             	mov    %eax,0x4(%rbx)
  402136:	85 c0                	test   %eax,%eax
  402138:	79 0c                	jns    402146 <rio_read+0x39>
  40213a:	e8 b1 ea ff ff       	callq  400bf0 <__errno_location@plt>
  40213f:	83 38 04             	cmpl   $0x4,(%rax)
  402142:	74 0a                	je     40214e <rio_read+0x41>
  402144:	eb 37                	jmp    40217d <rio_read+0x70>
  402146:	85 c0                	test   %eax,%eax
  402148:	74 3c                	je     402186 <rio_read+0x79>
  40214a:	4c 89 63 08          	mov    %r12,0x8(%rbx)
  40214e:	8b 6b 04             	mov    0x4(%rbx),%ebp
  402151:	85 ed                	test   %ebp,%ebp
  402153:	7e cf                	jle    402124 <rio_read+0x17>
  402155:	89 e8                	mov    %ebp,%eax
  402157:	4c 39 e8             	cmp    %r13,%rax
  40215a:	72 03                	jb     40215f <rio_read+0x52>
  40215c:	44 89 ed             	mov    %r13d,%ebp
  40215f:	4c 63 e5             	movslq %ebp,%r12
  402162:	48 8b 73 08          	mov    0x8(%rbx),%rsi
  402166:	4c 89 e2             	mov    %r12,%rdx
  402169:	4c 89 f7             	mov    %r14,%rdi
  40216c:	e8 8f eb ff ff       	callq  400d00 <memcpy@plt>
  402171:	4c 01 63 08          	add    %r12,0x8(%rbx)
  402175:	29 6b 04             	sub    %ebp,0x4(%rbx)
  402178:	4c 89 e0             	mov    %r12,%rax
  40217b:	eb 0e                	jmp    40218b <rio_read+0x7e>
  40217d:	48 c7 c0 ff ff ff ff 	mov    $0xffffffffffffffff,%rax
  402184:	eb 05                	jmp    40218b <rio_read+0x7e>
  402186:	b8 00 00 00 00       	mov    $0x0,%eax
  40218b:	5b                   	pop    %rbx
  40218c:	5d                   	pop    %rbp
  40218d:	41 5c                	pop    %r12
  40218f:	41 5d                	pop    %r13
  402191:	41 5e                	pop    %r14
  402193:	c3                   	retq   

0000000000402194 <rio_readlineb>:
  402194:	41 55                	push   %r13
  402196:	41 54                	push   %r12
  402198:	55                   	push   %rbp
  402199:	53                   	push   %rbx
  40219a:	48 83 ec 18          	sub    $0x18,%rsp
  40219e:	49 89 fd             	mov    %rdi,%r13
  4021a1:	48 89 f5             	mov    %rsi,%rbp
  4021a4:	49 89 d4             	mov    %rdx,%r12
  4021a7:	bb 01 00 00 00       	mov    $0x1,%ebx
  4021ac:	eb 3d                	jmp    4021eb <rio_readlineb+0x57>
  4021ae:	ba 01 00 00 00       	mov    $0x1,%edx
  4021b3:	48 8d 74 24 0f       	lea    0xf(%rsp),%rsi
  4021b8:	4c 89 ef             	mov    %r13,%rdi
  4021bb:	e8 4d ff ff ff       	callq  40210d <rio_read>
  4021c0:	83 f8 01             	cmp    $0x1,%eax
  4021c3:	75 12                	jne    4021d7 <rio_readlineb+0x43>
  4021c5:	48 8d 55 01          	lea    0x1(%rbp),%rdx
  4021c9:	0f b6 44 24 0f       	movzbl 0xf(%rsp),%eax
  4021ce:	88 45 00             	mov    %al,0x0(%rbp)
  4021d1:	3c 0a                	cmp    $0xa,%al
  4021d3:	75 0f                	jne    4021e4 <rio_readlineb+0x50>
  4021d5:	eb 1b                	jmp    4021f2 <rio_readlineb+0x5e>
  4021d7:	85 c0                	test   %eax,%eax
  4021d9:	75 23                	jne    4021fe <rio_readlineb+0x6a>
  4021db:	48 83 fb 01          	cmp    $0x1,%rbx
  4021df:	90                   	nop
  4021e0:	75 13                	jne    4021f5 <rio_readlineb+0x61>
  4021e2:	eb 23                	jmp    402207 <rio_readlineb+0x73>
  4021e4:	48 83 c3 01          	add    $0x1,%rbx
  4021e8:	48 89 d5             	mov    %rdx,%rbp
  4021eb:	4c 39 e3             	cmp    %r12,%rbx
  4021ee:	72 be                	jb     4021ae <rio_readlineb+0x1a>
  4021f0:	eb 03                	jmp    4021f5 <rio_readlineb+0x61>
  4021f2:	48 89 d5             	mov    %rdx,%rbp
  4021f5:	c6 45 00 00          	movb   $0x0,0x0(%rbp)
  4021f9:	48 89 d8             	mov    %rbx,%rax
  4021fc:	eb 0e                	jmp    40220c <rio_readlineb+0x78>
  4021fe:	48 c7 c0 ff ff ff ff 	mov    $0xffffffffffffffff,%rax
  402205:	eb 05                	jmp    40220c <rio_readlineb+0x78>
  402207:	b8 00 00 00 00       	mov    $0x0,%eax
  40220c:	48 83 c4 18          	add    $0x18,%rsp
  402210:	5b                   	pop    %rbx
  402211:	5d                   	pop    %rbp
  402212:	41 5c                	pop    %r12
  402214:	41 5d                	pop    %r13
  402216:	c3                   	retq   

0000000000402217 <submitr>:
  402217:	41 57                	push   %r15
  402219:	41 56                	push   %r14
  40221b:	41 55                	push   %r13
  40221d:	41 54                	push   %r12
  40221f:	55                   	push   %rbp
  402220:	53                   	push   %rbx
  402221:	48 81 ec 48 a0 00 00 	sub    $0xa048,%rsp
  402228:	49 89 fc             	mov    %rdi,%r12
  40222b:	89 74 24 04          	mov    %esi,0x4(%rsp)
  40222f:	49 89 d7             	mov    %rdx,%r15
  402232:	49 89 ce             	mov    %rcx,%r14
  402235:	4c 89 44 24 08       	mov    %r8,0x8(%rsp)
  40223a:	4d 89 cd             	mov    %r9,%r13
  40223d:	48 8b 9c 24 80 a0 00 	mov    0xa080(%rsp),%rbx
  402244:	00 
  402245:	c7 84 24 1c 20 00 00 	movl   $0x0,0x201c(%rsp)
  40224c:	00 00 00 00 
  402250:	ba 00 00 00 00       	mov    $0x0,%edx
  402255:	be 01 00 00 00       	mov    $0x1,%esi
  40225a:	bf 02 00 00 00       	mov    $0x2,%edi
  40225f:	e8 7c eb ff ff       	callq  400de0 <socket@plt>
  402264:	89 c5                	mov    %eax,%ebp
  402266:	85 c0                	test   %eax,%eax
  402268:	79 4e                	jns    4022b8 <submitr+0xa1>
  40226a:	48 b8 45 72 72 6f 72 	movabs $0x43203a726f727245,%rax
  402271:	3a 20 43 
  402274:	48 89 03             	mov    %rax,(%rbx)
  402277:	48 b8 6c 69 65 6e 74 	movabs $0x6e7520746e65696c,%rax
  40227e:	20 75 6e 
  402281:	48 89 43 08          	mov    %rax,0x8(%rbx)
  402285:	48 b8 61 62 6c 65 20 	movabs $0x206f7420656c6261,%rax
  40228c:	74 6f 20 
  40228f:	48 89 43 10          	mov    %rax,0x10(%rbx)
  402293:	48 b8 63 72 65 61 74 	movabs $0x7320657461657263,%rax
  40229a:	65 20 73 
  40229d:	48 89 43 18          	mov    %rax,0x18(%rbx)
  4022a1:	c7 43 20 6f 63 6b 65 	movl   $0x656b636f,0x20(%rbx)
  4022a8:	66 c7 43 24 74 00    	movw   $0x74,0x24(%rbx)
  4022ae:	b8 ff ff ff ff       	mov    $0xffffffff,%eax
  4022b3:	e9 68 06 00 00       	jmpq   402920 <submitr+0x709>
  4022b8:	4c 89 e7             	mov    %r12,%rdi
  4022bb:	e8 10 ea ff ff       	callq  400cd0 <gethostbyname@plt>
  4022c0:	48 85 c0             	test   %rax,%rax
  4022c3:	75 67                	jne    40232c <submitr+0x115>
  4022c5:	48 b8 45 72 72 6f 72 	movabs $0x44203a726f727245,%rax
  4022cc:	3a 20 44 
  4022cf:	48 89 03             	mov    %rax,(%rbx)
  4022d2:	48 b8 4e 53 20 69 73 	movabs $0x6e7520736920534e,%rax
  4022d9:	20 75 6e 
  4022dc:	48 89 43 08          	mov    %rax,0x8(%rbx)
  4022e0:	48 b8 61 62 6c 65 20 	movabs $0x206f7420656c6261,%rax
  4022e7:	74 6f 20 
  4022ea:	48 89 43 10          	mov    %rax,0x10(%rbx)
  4022ee:	48 b8 72 65 73 6f 6c 	movabs $0x2065766c6f736572,%rax
  4022f5:	76 65 20 
  4022f8:	48 89 43 18          	mov    %rax,0x18(%rbx)
  4022fc:	48 b8 73 65 72 76 65 	movabs $0x6120726576726573,%rax
  402303:	72 20 61 
  402306:	48 89 43 20          	mov    %rax,0x20(%rbx)
  40230a:	c7 43 28 64 64 72 65 	movl   $0x65726464,0x28(%rbx)
  402311:	66 c7 43 2c 73 73    	movw   $0x7373,0x2c(%rbx)
  402317:	c6 43 2e 00          	movb   $0x0,0x2e(%rbx)
  40231b:	89 ef                	mov    %ebp,%edi
  40231d:	e8 6e e9 ff ff       	callq  400c90 <close@plt>
  402322:	b8 ff ff ff ff       	mov    $0xffffffff,%eax
  402327:	e9 f4 05 00 00       	jmpq   402920 <submitr+0x709>
  40232c:	48 c7 84 24 30 a0 00 	movq   $0x0,0xa030(%rsp)
  402333:	00 00 00 00 00 
  402338:	48 c7 84 24 38 a0 00 	movq   $0x0,0xa038(%rsp)
  40233f:	00 00 00 00 00 
  402344:	66 c7 84 24 30 a0 00 	movw   $0x2,0xa030(%rsp)
  40234b:	00 02 00 
  40234e:	48 8b 48 18          	mov    0x18(%rax),%rcx
  402352:	48 63 50 14          	movslq 0x14(%rax),%rdx
  402356:	48 8d b4 24 34 a0 00 	lea    0xa034(%rsp),%rsi
  40235d:	00 
  40235e:	48 8b 39             	mov    (%rcx),%rdi
  402361:	e8 fa e9 ff ff       	callq  400d60 <bcopy@plt>
  402366:	0f b7 44 24 04       	movzwl 0x4(%rsp),%eax
  40236b:	66 c1 c8 08          	ror    $0x8,%ax
  40236f:	66 89 84 24 32 a0 00 	mov    %ax,0xa032(%rsp)
  402376:	00 
  402377:	ba 10 00 00 00       	mov    $0x10,%edx
  40237c:	48 8d b4 24 30 a0 00 	lea    0xa030(%rsp),%rsi
  402383:	00 
  402384:	89 ef                	mov    %ebp,%edi
  402386:	e8 45 ea ff ff       	callq  400dd0 <connect@plt>
  40238b:	85 c0                	test   %eax,%eax
  40238d:	79 59                	jns    4023e8 <submitr+0x1d1>
  40238f:	48 b8 45 72 72 6f 72 	movabs $0x55203a726f727245,%rax
  402396:	3a 20 55 
  402399:	48 89 03             	mov    %rax,(%rbx)
  40239c:	48 b8 6e 61 62 6c 65 	movabs $0x6f7420656c62616e,%rax
  4023a3:	20 74 6f 
  4023a6:	48 89 43 08          	mov    %rax,0x8(%rbx)
  4023aa:	48 b8 20 63 6f 6e 6e 	movabs $0x7463656e6e6f6320,%rax
  4023b1:	65 63 74 
  4023b4:	48 89 43 10          	mov    %rax,0x10(%rbx)
  4023b8:	48 b8 20 74 6f 20 74 	movabs $0x20656874206f7420,%rax
  4023bf:	68 65 20 
  4023c2:	48 89 43 18          	mov    %rax,0x18(%rbx)
  4023c6:	c7 43 20 73 65 72 76 	movl   $0x76726573,0x20(%rbx)
  4023cd:	66 c7 43 24 65 72    	movw   $0x7265,0x24(%rbx)
  4023d3:	c6 43 26 00          	movb   $0x0,0x26(%rbx)
  4023d7:	89 ef                	mov    %ebp,%edi
  4023d9:	e8 b2 e8 ff ff       	callq  400c90 <close@plt>
  4023de:	b8 ff ff ff ff       	mov    $0xffffffff,%eax
  4023e3:	e9 38 05 00 00       	jmpq   402920 <submitr+0x709>
  4023e8:	48 c7 c2 ff ff ff ff 	mov    $0xffffffffffffffff,%rdx
  4023ef:	4c 89 ef             	mov    %r13,%rdi
  4023f2:	b8 00 00 00 00       	mov    $0x0,%eax
  4023f7:	48 89 d1             	mov    %rdx,%rcx
  4023fa:	f2 ae                	repnz scas %es:(%rdi),%al
  4023fc:	48 f7 d1             	not    %rcx
  4023ff:	48 89 ce             	mov    %rcx,%rsi
  402402:	4c 89 ff             	mov    %r15,%rdi
  402405:	48 89 d1             	mov    %rdx,%rcx
  402408:	f2 ae                	repnz scas %es:(%rdi),%al
  40240a:	48 f7 d1             	not    %rcx
  40240d:	49 89 c8             	mov    %rcx,%r8
  402410:	4c 89 f7             	mov    %r14,%rdi
  402413:	48 89 d1             	mov    %rdx,%rcx
  402416:	f2 ae                	repnz scas %es:(%rdi),%al
  402418:	49 29 c8             	sub    %rcx,%r8
  40241b:	48 8b 7c 24 08       	mov    0x8(%rsp),%rdi
  402420:	48 89 d1             	mov    %rdx,%rcx
  402423:	f2 ae                	repnz scas %es:(%rdi),%al
  402425:	49 29 c8             	sub    %rcx,%r8
  402428:	48 8d 44 76 fd       	lea    -0x3(%rsi,%rsi,2),%rax
  40242d:	49 8d 44 00 7b       	lea    0x7b(%r8,%rax,1),%rax
  402432:	48 3d 00 20 00 00    	cmp    $0x2000,%rax
  402438:	76 72                	jbe    4024ac <submitr+0x295>
  40243a:	48 b8 45 72 72 6f 72 	movabs $0x52203a726f727245,%rax
  402441:	3a 20 52 
  402444:	48 89 03             	mov    %rax,(%rbx)
  402447:	48 b8 65 73 75 6c 74 	movabs $0x747320746c757365,%rax
  40244e:	20 73 74 
  402451:	48 89 43 08          	mov    %rax,0x8(%rbx)
  402455:	48 b8 72 69 6e 67 20 	movabs $0x6f6f7420676e6972,%rax
  40245c:	74 6f 6f 
  40245f:	48 89 43 10          	mov    %rax,0x10(%rbx)
  402463:	48 b8 20 6c 61 72 67 	movabs $0x202e656772616c20,%rax
  40246a:	65 2e 20 
  40246d:	48 89 43 18          	mov    %rax,0x18(%rbx)
  402471:	48 b8 49 6e 63 72 65 	movabs $0x6573616572636e49,%rax
  402478:	61 73 65 
  40247b:	48 89 43 20          	mov    %rax,0x20(%rbx)
  40247f:	48 b8 20 53 55 42 4d 	movabs $0x5254494d42555320,%rax
  402486:	49 54 52 
  402489:	48 89 43 28          	mov    %rax,0x28(%rbx)
  40248d:	48 b8 5f 4d 41 58 42 	movabs $0x46554258414d5f,%rax
  402494:	55 46 00 
  402497:	48 89 43 30          	mov    %rax,0x30(%rbx)
  40249b:	89 ef                	mov    %ebp,%edi
  40249d:	e8 ee e7 ff ff       	callq  400c90 <close@plt>
  4024a2:	b8 ff ff ff ff       	mov    $0xffffffff,%eax
  4024a7:	e9 74 04 00 00       	jmpq   402920 <submitr+0x709>
  4024ac:	48 8d b4 24 20 40 00 	lea    0x4020(%rsp),%rsi
  4024b3:	00 
  4024b4:	b9 00 04 00 00       	mov    $0x400,%ecx
  4024b9:	b8 00 00 00 00       	mov    $0x0,%eax
  4024be:	48 89 f7             	mov    %rsi,%rdi
  4024c1:	f3 48 ab             	rep stos %rax,%es:(%rdi)
  4024c4:	4c 89 ef             	mov    %r13,%rdi
  4024c7:	e8 0f fb ff ff       	callq  401fdb <urlencode>
  4024cc:	85 c0                	test   %eax,%eax
  4024ce:	0f 89 8a 00 00 00    	jns    40255e <submitr+0x347>
  4024d4:	48 b8 45 72 72 6f 72 	movabs $0x52203a726f727245,%rax
  4024db:	3a 20 52 
  4024de:	48 89 03             	mov    %rax,(%rbx)
  4024e1:	48 b8 65 73 75 6c 74 	movabs $0x747320746c757365,%rax
  4024e8:	20 73 74 
  4024eb:	48 89 43 08          	mov    %rax,0x8(%rbx)
  4024ef:	48 b8 72 69 6e 67 20 	movabs $0x6e6f6320676e6972,%rax
  4024f6:	63 6f 6e 
  4024f9:	48 89 43 10          	mov    %rax,0x10(%rbx)
  4024fd:	48 b8 74 61 69 6e 73 	movabs $0x6e6120736e696174,%rax
  402504:	20 61 6e 
  402507:	48 89 43 18          	mov    %rax,0x18(%rbx)
  40250b:	48 b8 20 69 6c 6c 65 	movabs $0x6c6167656c6c6920,%rax
  402512:	67 61 6c 
  402515:	48 89 43 20          	mov    %rax,0x20(%rbx)
  402519:	48 b8 20 6f 72 20 75 	movabs $0x72706e7520726f20,%rax
  402520:	6e 70 72 
  402523:	48 89 43 28          	mov    %rax,0x28(%rbx)
  402527:	48 b8 69 6e 74 61 62 	movabs $0x20656c6261746e69,%rax
  40252e:	6c 65 20 
  402531:	48 89 43 30          	mov    %rax,0x30(%rbx)
  402535:	48 b8 63 68 61 72 61 	movabs $0x6574636172616863,%rax
  40253c:	63 74 65 
  40253f:	48 89 43 38          	mov    %rax,0x38(%rbx)
  402543:	66 c7 43 40 72 2e    	movw   $0x2e72,0x40(%rbx)
  402549:	c6 43 42 00          	movb   $0x0,0x42(%rbx)
  40254d:	89 ef                	mov    %ebp,%edi
  40254f:	e8 3c e7 ff ff       	callq  400c90 <close@plt>
  402554:	b8 ff ff ff ff       	mov    $0xffffffff,%eax
  402559:	e9 c2 03 00 00       	jmpq   402920 <submitr+0x709>
  40255e:	4d 89 e1             	mov    %r12,%r9
  402561:	4c 8d 84 24 20 40 00 	lea    0x4020(%rsp),%r8
  402568:	00 
  402569:	4c 89 f9             	mov    %r15,%rcx
  40256c:	4c 89 f2             	mov    %r14,%rdx
  40256f:	be b8 34 40 00       	mov    $0x4034b8,%esi
  402574:	48 8d bc 24 20 60 00 	lea    0x6020(%rsp),%rdi
  40257b:	00 
  40257c:	b8 00 00 00 00       	mov    $0x0,%eax
  402581:	e8 2a e8 ff ff       	callq  400db0 <sprintf@plt>
  402586:	48 8d bc 24 20 60 00 	lea    0x6020(%rsp),%rdi
  40258d:	00 
  40258e:	b8 00 00 00 00       	mov    $0x0,%eax
  402593:	48 c7 c1 ff ff ff ff 	mov    $0xffffffffffffffff,%rcx
  40259a:	f2 ae                	repnz scas %es:(%rdi),%al
  40259c:	48 f7 d1             	not    %rcx
  40259f:	48 8d 51 ff          	lea    -0x1(%rcx),%rdx
  4025a3:	48 8d b4 24 20 60 00 	lea    0x6020(%rsp),%rsi
  4025aa:	00 
  4025ab:	89 ef                	mov    %ebp,%edi
  4025ad:	e8 ff fa ff ff       	callq  4020b1 <rio_writen>
  4025b2:	48 85 c0             	test   %rax,%rax
  4025b5:	79 6e                	jns    402625 <submitr+0x40e>
  4025b7:	48 b8 45 72 72 6f 72 	movabs $0x43203a726f727245,%rax
  4025be:	3a 20 43 
  4025c1:	48 89 03             	mov    %rax,(%rbx)
  4025c4:	48 b8 6c 69 65 6e 74 	movabs $0x6e7520746e65696c,%rax
  4025cb:	20 75 6e 
  4025ce:	48 89 43 08          	mov    %rax,0x8(%rbx)
  4025d2:	48 b8 61 62 6c 65 20 	movabs $0x206f7420656c6261,%rax
  4025d9:	74 6f 20 
  4025dc:	48 89 43 10          	mov    %rax,0x10(%rbx)
  4025e0:	48 b8 77 72 69 74 65 	movabs $0x6f74206574697277,%rax
  4025e7:	20 74 6f 
  4025ea:	48 89 43 18          	mov    %rax,0x18(%rbx)
  4025ee:	48 b8 20 74 68 65 20 	movabs $0x7365722065687420,%rax
  4025f5:	72 65 73 
  4025f8:	48 89 43 20          	mov    %rax,0x20(%rbx)
  4025fc:	48 b8 75 6c 74 20 73 	movabs $0x7672657320746c75,%rax
  402603:	65 72 76 
  402606:	48 89 43 28          	mov    %rax,0x28(%rbx)
  40260a:	66 c7 43 30 65 72    	movw   $0x7265,0x30(%rbx)
  402610:	c6 43 32 00          	movb   $0x0,0x32(%rbx)
  402614:	89 ef                	mov    %ebp,%edi
  402616:	e8 75 e6 ff ff       	callq  400c90 <close@plt>
  40261b:	b8 ff ff ff ff       	mov    $0xffffffff,%eax
  402620:	e9 fb 02 00 00       	jmpq   402920 <submitr+0x709>
  402625:	89 ee                	mov    %ebp,%esi
  402627:	48 8d bc 24 20 80 00 	lea    0x8020(%rsp),%rdi
  40262e:	00 
  40262f:	e8 6c f9 ff ff       	callq  401fa0 <rio_readinitb>
  402634:	ba 00 20 00 00       	mov    $0x2000,%edx
  402639:	48 8d b4 24 20 60 00 	lea    0x6020(%rsp),%rsi
  402640:	00 
  402641:	48 8d bc 24 20 80 00 	lea    0x8020(%rsp),%rdi
  402648:	00 
  402649:	e8 46 fb ff ff       	callq  402194 <rio_readlineb>
  40264e:	48 85 c0             	test   %rax,%rax
  402651:	7f 7d                	jg     4026d0 <submitr+0x4b9>
  402653:	48 b8 45 72 72 6f 72 	movabs $0x43203a726f727245,%rax
  40265a:	3a 20 43 
  40265d:	48 89 03             	mov    %rax,(%rbx)
  402660:	48 b8 6c 69 65 6e 74 	movabs $0x6e7520746e65696c,%rax
  402667:	20 75 6e 
  40266a:	48 89 43 08          	mov    %rax,0x8(%rbx)
  40266e:	48 b8 61 62 6c 65 20 	movabs $0x206f7420656c6261,%rax
  402675:	74 6f 20 
  402678:	48 89 43 10          	mov    %rax,0x10(%rbx)
  40267c:	48 b8 72 65 61 64 20 	movabs $0x7269662064616572,%rax
  402683:	66 69 72 
  402686:	48 89 43 18          	mov    %rax,0x18(%rbx)
  40268a:	48 b8 73 74 20 68 65 	movabs $0x6564616568207473,%rax
  402691:	61 64 65 
  402694:	48 89 43 20          	mov    %rax,0x20(%rbx)
  402698:	48 b8 72 20 66 72 6f 	movabs $0x72206d6f72662072,%rax
  40269f:	6d 20 72 
  4026a2:	48 89 43 28          	mov    %rax,0x28(%rbx)
  4026a6:	48 b8 65 73 75 6c 74 	movabs $0x657320746c757365,%rax
  4026ad:	20 73 65 
  4026b0:	48 89 43 30          	mov    %rax,0x30(%rbx)
  4026b4:	c7 43 38 72 76 65 72 	movl   $0x72657672,0x38(%rbx)
  4026bb:	c6 43 3c 00          	movb   $0x0,0x3c(%rbx)
  4026bf:	89 ef                	mov    %ebp,%edi
  4026c1:	e8 ca e5 ff ff       	callq  400c90 <close@plt>
  4026c6:	b8 ff ff ff ff       	mov    $0xffffffff,%eax
  4026cb:	e9 50 02 00 00       	jmpq   402920 <submitr+0x709>
  4026d0:	4c 8d 44 24 10       	lea    0x10(%rsp),%r8
  4026d5:	48 8d 8c 24 1c 20 00 	lea    0x201c(%rsp),%rcx
  4026dc:	00 
  4026dd:	48 8d 94 24 20 20 00 	lea    0x2020(%rsp),%rdx
  4026e4:	00 
  4026e5:	be 2f 35 40 00       	mov    $0x40352f,%esi
  4026ea:	48 8d bc 24 20 60 00 	lea    0x6020(%rsp),%rdi
  4026f1:	00 
  4026f2:	b8 00 00 00 00       	mov    $0x0,%eax
  4026f7:	e8 44 e6 ff ff       	callq  400d40 <__isoc99_sscanf@plt>
  4026fc:	e9 98 00 00 00       	jmpq   402799 <submitr+0x582>
  402701:	ba 00 20 00 00       	mov    $0x2000,%edx
  402706:	48 8d b4 24 20 60 00 	lea    0x6020(%rsp),%rsi
  40270d:	00 
  40270e:	48 8d bc 24 20 80 00 	lea    0x8020(%rsp),%rdi
  402715:	00 
  402716:	e8 79 fa ff ff       	callq  402194 <rio_readlineb>
  40271b:	48 85 c0             	test   %rax,%rax
  40271e:	7f 79                	jg     402799 <submitr+0x582>
  402720:	48 b8 45 72 72 6f 72 	movabs $0x43203a726f727245,%rax
  402727:	3a 20 43 
  40272a:	48 89 03             	mov    %rax,(%rbx)
  40272d:	48 b8 6c 69 65 6e 74 	movabs $0x6e7520746e65696c,%rax
  402734:	20 75 6e 
  402737:	48 89 43 08          	mov    %rax,0x8(%rbx)
  40273b:	48 b8 61 62 6c 65 20 	movabs $0x206f7420656c6261,%rax
  402742:	74 6f 20 
  402745:	48 89 43 10          	mov    %rax,0x10(%rbx)
  402749:	48 b8 72 65 61 64 20 	movabs $0x6165682064616572,%rax
  402750:	68 65 61 
  402753:	48 89 43 18          	mov    %rax,0x18(%rbx)
  402757:	48 b8 64 65 72 73 20 	movabs $0x6f72662073726564,%rax
  40275e:	66 72 6f 
  402761:	48 89 43 20          	mov    %rax,0x20(%rbx)
  402765:	48 b8 6d 20 74 68 65 	movabs $0x657220656874206d,%rax
  40276c:	20 72 65 
  40276f:	48 89 43 28          	mov    %rax,0x28(%rbx)
  402773:	48 b8 73 75 6c 74 20 	movabs $0x72657320746c7573,%rax
  40277a:	73 65 72 
  40277d:	48 89 43 30          	mov    %rax,0x30(%rbx)
  402781:	c7 43 38 76 65 72 00 	movl   $0x726576,0x38(%rbx)
  402788:	89 ef                	mov    %ebp,%edi
  40278a:	e8 01 e5 ff ff       	callq  400c90 <close@plt>
  40278f:	b8 ff ff ff ff       	mov    $0xffffffff,%eax
  402794:	e9 87 01 00 00       	jmpq   402920 <submitr+0x709>
  402799:	0f b6 84 24 20 60 00 	movzbl 0x6020(%rsp),%eax
  4027a0:	00 
  4027a1:	83 e8 0d             	sub    $0xd,%eax
  4027a4:	75 15                	jne    4027bb <submitr+0x5a4>
  4027a6:	0f b6 84 24 21 60 00 	movzbl 0x6021(%rsp),%eax
  4027ad:	00 
  4027ae:	83 e8 0a             	sub    $0xa,%eax
  4027b1:	75 08                	jne    4027bb <submitr+0x5a4>
  4027b3:	0f b6 84 24 22 60 00 	movzbl 0x6022(%rsp),%eax
  4027ba:	00 
  4027bb:	85 c0                	test   %eax,%eax
  4027bd:	0f 85 3e ff ff ff    	jne    402701 <submitr+0x4ea>
  4027c3:	ba 00 20 00 00       	mov    $0x2000,%edx
  4027c8:	48 8d b4 24 20 60 00 	lea    0x6020(%rsp),%rsi
  4027cf:	00 
  4027d0:	48 8d bc 24 20 80 00 	lea    0x8020(%rsp),%rdi
  4027d7:	00 
  4027d8:	e8 b7 f9 ff ff       	callq  402194 <rio_readlineb>
  4027dd:	48 85 c0             	test   %rax,%rax
  4027e0:	0f 8f 83 00 00 00    	jg     402869 <submitr+0x652>
  4027e6:	48 b8 45 72 72 6f 72 	movabs $0x43203a726f727245,%rax
  4027ed:	3a 20 43 
  4027f0:	48 89 03             	mov    %rax,(%rbx)
  4027f3:	48 b8 6c 69 65 6e 74 	movabs $0x6e7520746e65696c,%rax
  4027fa:	20 75 6e 
  4027fd:	48 89 43 08          	mov    %rax,0x8(%rbx)
  402801:	48 b8 61 62 6c 65 20 	movabs $0x206f7420656c6261,%rax
  402808:	74 6f 20 
  40280b:	48 89 43 10          	mov    %rax,0x10(%rbx)
  40280f:	48 b8 72 65 61 64 20 	movabs $0x6174732064616572,%rax
  402816:	73 74 61 
  402819:	48 89 43 18          	mov    %rax,0x18(%rbx)
  40281d:	48 b8 74 75 73 20 6d 	movabs $0x7373656d20737574,%rax
  402824:	65 73 73 
  402827:	48 89 43 20          	mov    %rax,0x20(%rbx)
  40282b:	48 b8 61 67 65 20 66 	movabs $0x6d6f726620656761,%rax
  402832:	72 6f 6d 
  402835:	48 89 43 28          	mov    %rax,0x28(%rbx)
  402839:	48 b8 20 72 65 73 75 	movabs $0x20746c7573657220,%rax
  402840:	6c 74 20 
  402843:	48 89 43 30          	mov    %rax,0x30(%rbx)
  402847:	c7 43 38 73 65 72 76 	movl   $0x76726573,0x38(%rbx)
  40284e:	66 c7 43 3c 65 72    	movw   $0x7265,0x3c(%rbx)
  402854:	c6 43 3e 00          	movb   $0x0,0x3e(%rbx)
  402858:	89 ef                	mov    %ebp,%edi
  40285a:	e8 31 e4 ff ff       	callq  400c90 <close@plt>
  40285f:	b8 ff ff ff ff       	mov    $0xffffffff,%eax
  402864:	e9 b7 00 00 00       	jmpq   402920 <submitr+0x709>
  402869:	8b 94 24 1c 20 00 00 	mov    0x201c(%rsp),%edx
  402870:	81 fa c8 00 00 00    	cmp    $0xc8,%edx
  402876:	74 28                	je     4028a0 <submitr+0x689>
  402878:	48 8d 4c 24 10       	lea    0x10(%rsp),%rcx
  40287d:	be f8 34 40 00       	mov    $0x4034f8,%esi
  402882:	48 89 df             	mov    %rbx,%rdi
  402885:	b8 00 00 00 00       	mov    $0x0,%eax
  40288a:	e8 21 e5 ff ff       	callq  400db0 <sprintf@plt>
  40288f:	89 ef                	mov    %ebp,%edi
  402891:	e8 fa e3 ff ff       	callq  400c90 <close@plt>
  402896:	b8 ff ff ff ff       	mov    $0xffffffff,%eax
  40289b:	e9 80 00 00 00       	jmpq   402920 <submitr+0x709>
  4028a0:	48 8d b4 24 20 60 00 	lea    0x6020(%rsp),%rsi
  4028a7:	00 
  4028a8:	48 89 df             	mov    %rbx,%rdi
  4028ab:	e8 70 e3 ff ff       	callq  400c20 <strcpy@plt>
  4028b0:	89 ef                	mov    %ebp,%edi
  4028b2:	e8 d9 e3 ff ff       	callq  400c90 <close@plt>
  4028b7:	0f b6 03             	movzbl (%rbx),%eax
  4028ba:	83 e8 4f             	sub    $0x4f,%eax
  4028bd:	75 18                	jne    4028d7 <submitr+0x6c0>
  4028bf:	0f b6 53 01          	movzbl 0x1(%rbx),%edx
  4028c3:	83 ea 4b             	sub    $0x4b,%edx
  4028c6:	75 11                	jne    4028d9 <submitr+0x6c2>
  4028c8:	0f b6 53 02          	movzbl 0x2(%rbx),%edx
  4028cc:	83 ea 0a             	sub    $0xa,%edx
  4028cf:	75 08                	jne    4028d9 <submitr+0x6c2>
  4028d1:	0f b6 53 03          	movzbl 0x3(%rbx),%edx
  4028d5:	eb 02                	jmp    4028d9 <submitr+0x6c2>
  4028d7:	89 c2                	mov    %eax,%edx
  4028d9:	85 d2                	test   %edx,%edx
  4028db:	74 30                	je     40290d <submitr+0x6f6>
  4028dd:	bf 40 35 40 00       	mov    $0x403540,%edi
  4028e2:	b9 05 00 00 00       	mov    $0x5,%ecx
  4028e7:	48 89 de             	mov    %rbx,%rsi
  4028ea:	f3 a6                	repz cmpsb %es:(%rdi),%ds:(%rsi)
  4028ec:	0f 97 c1             	seta   %cl
  4028ef:	0f 92 c2             	setb   %dl
  4028f2:	38 d1                	cmp    %dl,%cl
  4028f4:	74 1e                	je     402914 <submitr+0x6fd>
  4028f6:	85 c0                	test   %eax,%eax
  4028f8:	75 0d                	jne    402907 <submitr+0x6f0>
  4028fa:	0f b6 43 01          	movzbl 0x1(%rbx),%eax
  4028fe:	83 e8 4b             	sub    $0x4b,%eax
  402901:	75 04                	jne    402907 <submitr+0x6f0>
  402903:	0f b6 43 02          	movzbl 0x2(%rbx),%eax
  402907:	85 c0                	test   %eax,%eax
  402909:	75 10                	jne    40291b <submitr+0x704>
  40290b:	eb 13                	jmp    402920 <submitr+0x709>
  40290d:	b8 00 00 00 00       	mov    $0x0,%eax
  402912:	eb 0c                	jmp    402920 <submitr+0x709>
  402914:	b8 00 00 00 00       	mov    $0x0,%eax
  402919:	eb 05                	jmp    402920 <submitr+0x709>
  40291b:	b8 ff ff ff ff       	mov    $0xffffffff,%eax
  402920:	48 81 c4 48 a0 00 00 	add    $0xa048,%rsp
  402927:	5b                   	pop    %rbx
  402928:	5d                   	pop    %rbp
  402929:	41 5c                	pop    %r12
  40292b:	41 5d                	pop    %r13
  40292d:	41 5e                	pop    %r14
  40292f:	41 5f                	pop    %r15
  402931:	c3                   	retq   

0000000000402932 <init_timeout>:
  402932:	53                   	push   %rbx
  402933:	89 fb                	mov    %edi,%ebx
  402935:	85 ff                	test   %edi,%edi
  402937:	74 1f                	je     402958 <init_timeout+0x26>
  402939:	85 ff                	test   %edi,%edi
  40293b:	79 05                	jns    402942 <init_timeout+0x10>
  40293d:	bb 00 00 00 00       	mov    $0x0,%ebx
  402942:	be b2 1f 40 00       	mov    $0x401fb2,%esi
  402947:	bf 0e 00 00 00       	mov    $0xe,%edi
  40294c:	e8 6f e3 ff ff       	callq  400cc0 <signal@plt>
  402951:	89 df                	mov    %ebx,%edi
  402953:	e8 28 e3 ff ff       	callq  400c80 <alarm@plt>
  402958:	5b                   	pop    %rbx
  402959:	c3                   	retq   

000000000040295a <init_driver>:
  40295a:	55                   	push   %rbp
  40295b:	53                   	push   %rbx
  40295c:	48 83 ec 18          	sub    $0x18,%rsp
  402960:	48 89 fd             	mov    %rdi,%rbp
  402963:	be 01 00 00 00       	mov    $0x1,%esi
  402968:	bf 0d 00 00 00       	mov    $0xd,%edi
  40296d:	e8 4e e3 ff ff       	callq  400cc0 <signal@plt>
  402972:	be 01 00 00 00       	mov    $0x1,%esi
  402977:	bf 1d 00 00 00       	mov    $0x1d,%edi
  40297c:	e8 3f e3 ff ff       	callq  400cc0 <signal@plt>
  402981:	be 01 00 00 00       	mov    $0x1,%esi
  402986:	bf 1d 00 00 00       	mov    $0x1d,%edi
  40298b:	e8 30 e3 ff ff       	callq  400cc0 <signal@plt>
  402990:	ba 00 00 00 00       	mov    $0x0,%edx
  402995:	be 01 00 00 00       	mov    $0x1,%esi
  40299a:	bf 02 00 00 00       	mov    $0x2,%edi
  40299f:	e8 3c e4 ff ff       	callq  400de0 <socket@plt>
  4029a4:	89 c3                	mov    %eax,%ebx
  4029a6:	85 c0                	test   %eax,%eax
  4029a8:	79 4f                	jns    4029f9 <init_driver+0x9f>
  4029aa:	48 b8 45 72 72 6f 72 	movabs $0x43203a726f727245,%rax
  4029b1:	3a 20 43 
  4029b4:	48 89 45 00          	mov    %rax,0x0(%rbp)
  4029b8:	48 b8 6c 69 65 6e 74 	movabs $0x6e7520746e65696c,%rax
  4029bf:	20 75 6e 
  4029c2:	48 89 45 08          	mov    %rax,0x8(%rbp)
  4029c6:	48 b8 61 62 6c 65 20 	movabs $0x206f7420656c6261,%rax
  4029cd:	74 6f 20 
  4029d0:	48 89 45 10          	mov    %rax,0x10(%rbp)
  4029d4:	48 b8 63 72 65 61 74 	movabs $0x7320657461657263,%rax
  4029db:	65 20 73 
  4029de:	48 89 45 18          	mov    %rax,0x18(%rbp)
  4029e2:	c7 45 20 6f 63 6b 65 	movl   $0x656b636f,0x20(%rbp)
  4029e9:	66 c7 45 24 74 00    	movw   $0x74,0x24(%rbp)
  4029ef:	b8 ff ff ff ff       	mov    $0xffffffff,%eax
  4029f4:	e9 23 01 00 00       	jmpq   402b1c <init_driver+0x1c2>
  4029f9:	bf 37 30 40 00       	mov    $0x403037,%edi
  4029fe:	e8 cd e2 ff ff       	callq  400cd0 <gethostbyname@plt>
  402a03:	48 85 c0             	test   %rax,%rax
  402a06:	75 68                	jne    402a70 <init_driver+0x116>
  402a08:	48 b8 45 72 72 6f 72 	movabs $0x44203a726f727245,%rax
  402a0f:	3a 20 44 
  402a12:	48 89 45 00          	mov    %rax,0x0(%rbp)
  402a16:	48 b8 4e 53 20 69 73 	movabs $0x6e7520736920534e,%rax
  402a1d:	20 75 6e 
  402a20:	48 89 45 08          	mov    %rax,0x8(%rbp)
  402a24:	48 b8 61 62 6c 65 20 	movabs $0x206f7420656c6261,%rax
  402a2b:	74 6f 20 
  402a2e:	48 89 45 10          	mov    %rax,0x10(%rbp)
  402a32:	48 b8 72 65 73 6f 6c 	movabs $0x2065766c6f736572,%rax
  402a39:	76 65 20 
  402a3c:	48 89 45 18          	mov    %rax,0x18(%rbp)
  402a40:	48 b8 73 65 72 76 65 	movabs $0x6120726576726573,%rax
  402a47:	72 20 61 
  402a4a:	48 89 45 20          	mov    %rax,0x20(%rbp)
  402a4e:	c7 45 28 64 64 72 65 	movl   $0x65726464,0x28(%rbp)
  402a55:	66 c7 45 2c 73 73    	movw   $0x7373,0x2c(%rbp)
  402a5b:	c6 45 2e 00          	movb   $0x0,0x2e(%rbp)
  402a5f:	89 df                	mov    %ebx,%edi
  402a61:	e8 2a e2 ff ff       	callq  400c90 <close@plt>
  402a66:	b8 ff ff ff ff       	mov    $0xffffffff,%eax
  402a6b:	e9 ac 00 00 00       	jmpq   402b1c <init_driver+0x1c2>
  402a70:	48 c7 04 24 00 00 00 	movq   $0x0,(%rsp)
  402a77:	00 
  402a78:	48 c7 44 24 08 00 00 	movq   $0x0,0x8(%rsp)
  402a7f:	00 00 
  402a81:	66 c7 04 24 02 00    	movw   $0x2,(%rsp)
  402a87:	48 8b 48 18          	mov    0x18(%rax),%rcx
  402a8b:	48 63 50 14          	movslq 0x14(%rax),%rdx
  402a8f:	48 8d 74 24 04       	lea    0x4(%rsp),%rsi
  402a94:	48 8b 39             	mov    (%rcx),%rdi
  402a97:	e8 c4 e2 ff ff       	callq  400d60 <bcopy@plt>
  402a9c:	66 c7 44 24 02 3b 6e 	movw   $0x6e3b,0x2(%rsp)
  402aa3:	ba 10 00 00 00       	mov    $0x10,%edx
  402aa8:	48 89 e6             	mov    %rsp,%rsi
  402aab:	89 df                	mov    %ebx,%edi
  402aad:	e8 1e e3 ff ff       	callq  400dd0 <connect@plt>
  402ab2:	85 c0                	test   %eax,%eax
  402ab4:	79 50                	jns    402b06 <init_driver+0x1ac>
  402ab6:	48 b8 45 72 72 6f 72 	movabs $0x55203a726f727245,%rax
  402abd:	3a 20 55 
  402ac0:	48 89 45 00          	mov    %rax,0x0(%rbp)
  402ac4:	48 b8 6e 61 62 6c 65 	movabs $0x6f7420656c62616e,%rax
  402acb:	20 74 6f 
  402ace:	48 89 45 08          	mov    %rax,0x8(%rbp)
  402ad2:	48 b8 20 63 6f 6e 6e 	movabs $0x7463656e6e6f6320,%rax
  402ad9:	65 63 74 
  402adc:	48 89 45 10          	mov    %rax,0x10(%rbp)
  402ae0:	48 b8 20 74 6f 20 73 	movabs $0x76726573206f7420,%rax
  402ae7:	65 72 76 
  402aea:	48 89 45 18          	mov    %rax,0x18(%rbp)
  402aee:	66 c7 45 20 65 72    	movw   $0x7265,0x20(%rbp)
  402af4:	c6 45 22 00          	movb   $0x0,0x22(%rbp)
  402af8:	89 df                	mov    %ebx,%edi
  402afa:	e8 91 e1 ff ff       	callq  400c90 <close@plt>
  402aff:	b8 ff ff ff ff       	mov    $0xffffffff,%eax
  402b04:	eb 16                	jmp    402b1c <init_driver+0x1c2>
  402b06:	89 df                	mov    %ebx,%edi
  402b08:	e8 83 e1 ff ff       	callq  400c90 <close@plt>
  402b0d:	66 c7 45 00 4f 4b    	movw   $0x4b4f,0x0(%rbp)
  402b13:	c6 45 02 00          	movb   $0x0,0x2(%rbp)
  402b17:	b8 00 00 00 00       	mov    $0x0,%eax
  402b1c:	48 83 c4 18          	add    $0x18,%rsp
  402b20:	5b                   	pop    %rbx
  402b21:	5d                   	pop    %rbp
  402b22:	c3                   	retq   

0000000000402b23 <driver_post>:
  402b23:	53                   	push   %rbx
  402b24:	48 83 ec 10          	sub    $0x10,%rsp
  402b28:	4c 89 cb             	mov    %r9,%rbx
  402b2b:	45 85 c0             	test   %r8d,%r8d
  402b2e:	74 22                	je     402b52 <driver_post+0x2f>
  402b30:	48 89 ce             	mov    %rcx,%rsi
  402b33:	bf 45 35 40 00       	mov    $0x403545,%edi
  402b38:	b8 00 00 00 00       	mov    $0x0,%eax
  402b3d:	e8 1e e1 ff ff       	callq  400c60 <printf@plt>
  402b42:	66 c7 03 4f 4b       	movw   $0x4b4f,(%rbx)
  402b47:	c6 43 02 00          	movb   $0x0,0x2(%rbx)
  402b4b:	b8 00 00 00 00       	mov    $0x0,%eax
  402b50:	eb 39                	jmp    402b8b <driver_post+0x68>
  402b52:	48 85 ff             	test   %rdi,%rdi
  402b55:	74 26                	je     402b7d <driver_post+0x5a>
  402b57:	80 3f 00             	cmpb   $0x0,(%rdi)
  402b5a:	74 21                	je     402b7d <driver_post+0x5a>
  402b5c:	4c 89 0c 24          	mov    %r9,(%rsp)
  402b60:	49 89 c9             	mov    %rcx,%r9
  402b63:	49 89 d0             	mov    %rdx,%r8
  402b66:	48 89 f9             	mov    %rdi,%rcx
  402b69:	48 89 f2             	mov    %rsi,%rdx
  402b6c:	be 6e 3b 00 00       	mov    $0x3b6e,%esi
  402b71:	bf 37 30 40 00       	mov    $0x403037,%edi
  402b76:	e8 9c f6 ff ff       	callq  402217 <submitr>
  402b7b:	eb 0e                	jmp    402b8b <driver_post+0x68>
  402b7d:	66 c7 03 4f 4b       	movw   $0x4b4f,(%rbx)
  402b82:	c6 43 02 00          	movb   $0x0,0x2(%rbx)
  402b86:	b8 00 00 00 00       	mov    $0x0,%eax
  402b8b:	48 83 c4 10          	add    $0x10,%rsp
  402b8f:	5b                   	pop    %rbx
  402b90:	c3                   	retq   

0000000000402b91 <check>:
  402b91:	89 f8                	mov    %edi,%eax
  402b93:	c1 e8 1c             	shr    $0x1c,%eax
  402b96:	74 1d                	je     402bb5 <check+0x24>
  402b98:	b9 00 00 00 00       	mov    $0x0,%ecx
  402b9d:	83 f9 1f             	cmp    $0x1f,%ecx
  402ba0:	7f 0d                	jg     402baf <check+0x1e>
  402ba2:	89 f8                	mov    %edi,%eax
  402ba4:	d3 e8                	shr    %cl,%eax
  402ba6:	3c 0a                	cmp    $0xa,%al
  402ba8:	74 11                	je     402bbb <check+0x2a>
  402baa:	83 c1 08             	add    $0x8,%ecx
  402bad:	eb ee                	jmp    402b9d <check+0xc>
  402baf:	b8 01 00 00 00       	mov    $0x1,%eax
  402bb4:	c3                   	retq   
  402bb5:	b8 00 00 00 00       	mov    $0x0,%eax
  402bba:	c3                   	retq   
  402bbb:	b8 00 00 00 00       	mov    $0x0,%eax
  402bc0:	c3                   	retq   

0000000000402bc1 <gencookie>:
  402bc1:	53                   	push   %rbx
  402bc2:	83 c7 01             	add    $0x1,%edi
  402bc5:	e8 36 e0 ff ff       	callq  400c00 <srandom@plt>
  402bca:	e8 51 e1 ff ff       	callq  400d20 <random@plt>
  402bcf:	48 89 c7             	mov    %rax,%rdi
  402bd2:	89 c3                	mov    %eax,%ebx
  402bd4:	e8 b8 ff ff ff       	callq  402b91 <check>
  402bd9:	85 c0                	test   %eax,%eax
  402bdb:	74 ed                	je     402bca <gencookie+0x9>
  402bdd:	89 d8                	mov    %ebx,%eax
  402bdf:	5b                   	pop    %rbx
  402be0:	c3                   	retq   
  402be1:	66 2e 0f 1f 84 00 00 	nopw   %cs:0x0(%rax,%rax,1)
  402be8:	00 00 00 
  402beb:	0f 1f 44 00 00       	nopl   0x0(%rax,%rax,1)

0000000000402bf0 <__libc_csu_init>:
  402bf0:	41 57                	push   %r15
  402bf2:	41 89 ff             	mov    %edi,%r15d
  402bf5:	41 56                	push   %r14
  402bf7:	49 89 f6             	mov    %rsi,%r14
  402bfa:	41 55                	push   %r13
  402bfc:	49 89 d5             	mov    %rdx,%r13
  402bff:	41 54                	push   %r12
  402c01:	4c 8d 25 08 22 20 00 	lea    0x202208(%rip),%r12        # 604e10 <__frame_dummy_init_array_entry>
  402c08:	55                   	push   %rbp
  402c09:	48 8d 2d 08 22 20 00 	lea    0x202208(%rip),%rbp        # 604e18 <__init_array_end>
  402c10:	53                   	push   %rbx
  402c11:	4c 29 e5             	sub    %r12,%rbp
  402c14:	31 db                	xor    %ebx,%ebx
  402c16:	48 c1 fd 03          	sar    $0x3,%rbp
  402c1a:	48 83 ec 08          	sub    $0x8,%rsp
  402c1e:	e8 8d df ff ff       	callq  400bb0 <_init>
  402c23:	48 85 ed             	test   %rbp,%rbp
  402c26:	74 1e                	je     402c46 <__libc_csu_init+0x56>
  402c28:	0f 1f 84 00 00 00 00 	nopl   0x0(%rax,%rax,1)
  402c2f:	00 
  402c30:	4c 89 ea             	mov    %r13,%rdx
  402c33:	4c 89 f6             	mov    %r14,%rsi
  402c36:	44 89 ff             	mov    %r15d,%edi
  402c39:	41 ff 14 dc          	callq  *(%r12,%rbx,8)
  402c3d:	48 83 c3 01          	add    $0x1,%rbx
  402c41:	48 39 eb             	cmp    %rbp,%rbx
  402c44:	75 ea                	jne    402c30 <__libc_csu_init+0x40>
  402c46:	48 83 c4 08          	add    $0x8,%rsp
  402c4a:	5b                   	pop    %rbx
  402c4b:	5d                   	pop    %rbp
  402c4c:	41 5c                	pop    %r12
  402c4e:	41 5d                	pop    %r13
  402c50:	41 5e                	pop    %r14
  402c52:	41 5f                	pop    %r15
  402c54:	c3                   	retq   
  402c55:	90                   	nop
  402c56:	66 2e 0f 1f 84 00 00 	nopw   %cs:0x0(%rax,%rax,1)
  402c5d:	00 00 00 

0000000000402c60 <__libc_csu_fini>:
  402c60:	f3 c3                	repz retq 

Disassembly of section .fini:

0000000000402c64 <_fini>:
  402c64:	48 83 ec 08          	sub    $0x8,%rsp
  402c68:	48 83 c4 08          	add    $0x8,%rsp
  402c6c:	c3                   	retq   
